; Listing generated by Microsoft (R) Optimizing Compiler Version 19.29.30137.0 

	TITLE	C:\Users\ilyak\Desktop\YAP\Курсач\Debug\сub_ver_2.0.obj
	.686P
	.XMM
	include listing.inc
	.model	flat

INCLUDELIB MSVCRTD
INCLUDELIB OLDNAMES

msvcjmc	SEGMENT
__A2143F22_corecrt_stdio_config@h DB 01H
__829E1958_corecrt_wstdio@h DB 01H
__6DFAE8B8_stdio@h DB 01H
__20BB4341_malloc@h DB 01H
__1C12C7C8_сub_ver_2@0@cpp DB 01H
msvcjmc	ENDS
PUBLIC	___local_stdio_printf_options
PUBLIC	___local_stdio_scanf_options
PUBLIC	__vfprintf_l
PUBLIC	_printf
PUBLIC	__vfscanf_l
PUBLIC	_scanf
PUBLIC	?cub_9@@YAHPAPAHHHHHHPAH0HHH@Z			; cub_9
PUBLIC	?cub@@YAPAPAHHPAPAH@Z				; cub
PUBLIC	?check@@YAHH@Z					; check
PUBLIC	_main
PUBLIC	__JustMyCode_Default
PUBLIC	?_OptionsStorage@?1??__local_stdio_printf_options@@9@4_KA ; `__local_stdio_printf_options'::`2'::_OptionsStorage
PUBLIC	?_OptionsStorage@?1??__local_stdio_scanf_options@@9@4_KA ; `__local_stdio_scanf_options'::`2'::_OptionsStorage
PUBLIC	??_C@_01HIHLOKLC@1@				; `string'
PUBLIC	??_C@_07FPFIAEAJ@1?54?62?53@			; `string'
PUBLIC	??_C@_04IDILIIH@?$CF3d?5@			; `string'
PUBLIC	??_C@_01EEMJAFIK@?6@				; `string'
PUBLIC	??_C@_02CIBPIIHJ@n?$DN@				; `string'
PUBLIC	??_C@_02DPKJAMEF@?$CFd@				; `string'
PUBLIC	??_C@_08HEJHNOEB@Prostite@			; `string'
EXTRN	__imp____acrt_iob_func:PROC
EXTRN	__imp____stdio_common_vfprintf:PROC
EXTRN	__imp____stdio_common_vfscanf:PROC
EXTRN	__imp__malloc:PROC
EXTRN	@_RTC_CheckStackVars@8:PROC
EXTRN	@__CheckForDebuggerJustMyCode@4:PROC
EXTRN	@__security_check_cookie@4:PROC
EXTRN	__RTC_CheckEsp:PROC
EXTRN	__RTC_InitBase:PROC
EXTRN	__RTC_Shutdown:PROC
EXTRN	___security_cookie:DWORD
;	COMDAT ?_OptionsStorage@?1??__local_stdio_printf_options@@9@4_KA
_BSS	SEGMENT
?_OptionsStorage@?1??__local_stdio_printf_options@@9@4_KA DQ 01H DUP (?) ; `__local_stdio_printf_options'::`2'::_OptionsStorage
_BSS	ENDS
;	COMDAT ?_OptionsStorage@?1??__local_stdio_scanf_options@@9@4_KA
_BSS	SEGMENT
?_OptionsStorage@?1??__local_stdio_scanf_options@@9@4_KA DQ 01H DUP (?) ; `__local_stdio_scanf_options'::`2'::_OptionsStorage
_BSS	ENDS
;	COMDAT rtc$TMZ
rtc$TMZ	SEGMENT
__RTC_Shutdown.rtc$TMZ DD FLAT:__RTC_Shutdown
rtc$TMZ	ENDS
;	COMDAT rtc$IMZ
rtc$IMZ	SEGMENT
__RTC_InitBase.rtc$IMZ DD FLAT:__RTC_InitBase
rtc$IMZ	ENDS
;	COMDAT ??_C@_08HEJHNOEB@Prostite@
CONST	SEGMENT
??_C@_08HEJHNOEB@Prostite@ DB 'Prostite', 00H		; `string'
CONST	ENDS
;	COMDAT ??_C@_02DPKJAMEF@?$CFd@
CONST	SEGMENT
??_C@_02DPKJAMEF@?$CFd@ DB '%d', 00H			; `string'
CONST	ENDS
;	COMDAT ??_C@_02CIBPIIHJ@n?$DN@
CONST	SEGMENT
??_C@_02CIBPIIHJ@n?$DN@ DB 'n=', 00H			; `string'
CONST	ENDS
;	COMDAT ??_C@_01EEMJAFIK@?6@
CONST	SEGMENT
??_C@_01EEMJAFIK@?6@ DB 0aH, 00H			; `string'
CONST	ENDS
;	COMDAT ??_C@_04IDILIIH@?$CF3d?5@
CONST	SEGMENT
??_C@_04IDILIIH@?$CF3d?5@ DB '%3d ', 00H		; `string'
CONST	ENDS
;	COMDAT ??_C@_07FPFIAEAJ@1?54?62?53@
CONST	SEGMENT
??_C@_07FPFIAEAJ@1?54?62?53@ DB '1 4', 0aH, '2 3', 00H	; `string'
CONST	ENDS
;	COMDAT ??_C@_01HIHLOKLC@1@
CONST	SEGMENT
??_C@_01HIHLOKLC@1@ DB '1', 00H				; `string'
CONST	ENDS
;	COMDAT voltbl
voltbl	SEGMENT
_volmd	DB	022H
	DB	0e4H
voltbl	ENDS
;	COMDAT voltbl
voltbl	SEGMENT
_volmd	DW	022H
	DW	0693H
voltbl	ENDS
; Function compile flags: /Odt
;	COMDAT __JustMyCode_Default
_TEXT	SEGMENT
__JustMyCode_Default PROC				; COMDAT
	push	ebp
	mov	ebp, esp
	pop	ebp
	ret	0
__JustMyCode_Default ENDP
_TEXT	ENDS
; Function compile flags: /Odtp /RTCsu /ZI
; File C:\Users\ilyak\Desktop\YAP\Курсач\сub_ver_2.0.cpp
;	COMDAT _main
_TEXT	SEGMENT
_N$1 = -60						; size = 4
_tab$ = -48						; size = 4
_prov$ = -24						; size = 4
_n$ = -12						; size = 4
__$ArrayPad$ = -4					; size = 4
_main	PROC						; COMDAT

; 2849 : int main() {

	push	ebp
	mov	ebp, esp
	sub	esp, 256				; 00000100H
	push	ebx
	push	esi
	push	edi
	lea	edi, DWORD PTR [ebp-64]
	mov	ecx, 16					; 00000010H
	mov	eax, -858993460				; ccccccccH
	rep stosd
	mov	eax, DWORD PTR ___security_cookie
	xor	eax, ebp
	mov	DWORD PTR __$ArrayPad$[ebp], eax
	mov	ecx, OFFSET __1C12C7C8_сub_ver_2@0@cpp
	call	@__CheckForDebuggerJustMyCode@4

; 2850 : 	int n, prov, i;
; 2851 : 	int** tab = 0;

	mov	DWORD PTR _tab$[ebp], 0

; 2852 : 
; 2853 : 	printf("n=");

	push	OFFSET ??_C@_02CIBPIIHJ@n?$DN@
	call	_printf
	add	esp, 4

; 2854 : 	scanf("%d", &n);

	lea	eax, DWORD PTR _n$[ebp]
	push	eax
	push	OFFSET ??_C@_02DPKJAMEF@?$CFd@
	call	_scanf
	add	esp, 8

; 2855 : 	printf("\n");

	push	OFFSET ??_C@_01EEMJAFIK@?6@
	call	_printf
	add	esp, 4

; 2856 : 
; 2857 : 	prov = check(n * n);

	mov	eax, DWORD PTR _n$[ebp]
	imul	eax, DWORD PTR _n$[ebp]
	push	eax
	call	?check@@YAHH@Z				; check
	add	esp, 4
	mov	DWORD PTR _prov$[ebp], eax

; 2858 : 	if (prov == 0)

	cmp	DWORD PTR _prov$[ebp], 0
	jne	SHORT $LN2@main

; 2859 : 		printf("Prostite");

	push	OFFSET ??_C@_08HEJHNOEB@Prostite@
	call	_printf
	add	esp, 4
	jmp	SHORT $LN1@main
$LN2@main:

; 2860 : 	else {
; 2861 : 		if (n > 10) {

	cmp	DWORD PTR _n$[ebp], 10			; 0000000aH
	jle	SHORT $LN4@main

; 2862 : 			int N = n / 3;

	mov	eax, DWORD PTR _n$[ebp]
	cdq
	mov	ecx, 3
	idiv	ecx
	mov	DWORD PTR _N$1[ebp], eax

; 2863 : 			tab = cub(N, 0);

	push	0
	mov	eax, DWORD PTR _N$1[ebp]
	push	eax
	call	?cub@@YAPAPAHHPAPAH@Z			; cub
	add	esp, 8
	mov	DWORD PTR _tab$[ebp], eax

; 2864 : 			cub(n, tab);

	mov	eax, DWORD PTR _tab$[ebp]
	push	eax
	mov	ecx, DWORD PTR _n$[ebp]
	push	ecx
	call	?cub@@YAPAPAHHPAPAH@Z			; cub
	add	esp, 8

; 2865 : 		}

	jmp	SHORT $LN1@main
$LN4@main:

; 2866 : 		else
; 2867 : 			cub(n, 0);

	push	0
	mov	eax, DWORD PTR _n$[ebp]
	push	eax
	call	?cub@@YAPAPAHHPAPAH@Z			; cub
	add	esp, 8
$LN1@main:

; 2868 : 	}
; 2869 : }

	xor	eax, eax
	push	edx
	mov	ecx, ebp
	push	eax
	lea	edx, DWORD PTR $LN9@main
	call	@_RTC_CheckStackVars@8
	pop	eax
	pop	edx
	pop	edi
	pop	esi
	pop	ebx
	mov	ecx, DWORD PTR __$ArrayPad$[ebp]
	xor	ecx, ebp
	call	@__security_check_cookie@4
	add	esp, 256				; 00000100H
	cmp	ebp, esp
	call	__RTC_CheckEsp
	mov	esp, ebp
	pop	ebp
	ret	0
	npad	1
$LN9@main:
	DD	1
	DD	$LN8@main
$LN8@main:
	DD	-12					; fffffff4H
	DD	4
	DD	$LN7@main
$LN7@main:
	DB	110					; 0000006eH
	DB	0
_main	ENDP
_TEXT	ENDS
; Function compile flags: /Odtp /RTCsu /ZI
; File C:\Users\ilyak\Desktop\YAP\Курсач\сub_ver_2.0.cpp
;	COMDAT ?check@@YAHH@Z
_TEXT	SEGMENT
_n$ = 8							; size = 4
?check@@YAHH@Z PROC					; check, COMDAT

; 2835 : int check(int n) {

	push	ebp
	mov	ebp, esp
	sub	esp, 192				; 000000c0H
	push	ebx
	push	esi
	push	edi
	mov	edi, ebp
	xor	ecx, ecx
	mov	eax, -858993460				; ccccccccH
	rep stosd
	mov	ecx, OFFSET __1C12C7C8_сub_ver_2@0@cpp
	call	@__CheckForDebuggerJustMyCode@4

; 2836 : 	if (n != 9)

	cmp	DWORD PTR _n$[ebp], 9
	je	SHORT $LN4@check
$LN2@check:

; 2837 : 		while (n % 9 == 0 && n != 0)

	mov	eax, DWORD PTR _n$[ebp]
	cdq
	mov	ecx, 9
	idiv	ecx
	test	edx, edx
	jne	SHORT $LN4@check
	cmp	DWORD PTR _n$[ebp], 0
	je	SHORT $LN4@check

; 2838 : 			n /= 9;

	mov	eax, DWORD PTR _n$[ebp]
	cdq
	mov	ecx, 9
	idiv	ecx
	mov	DWORD PTR _n$[ebp], eax
	jmp	SHORT $LN2@check
$LN4@check:

; 2839 : 	if (n % 4 == 0)

	mov	eax, DWORD PTR _n$[ebp]
	and	eax, -2147483645			; 80000003H
	jns	SHORT $LN9@check
	dec	eax
	or	eax, -4					; fffffffcH
	inc	eax
$LN9@check:
	test	eax, eax
	jne	SHORT $LN5@check

; 2840 : 		n /= 4;

	mov	eax, DWORD PTR _n$[ebp]
	cdq
	and	edx, 3
	add	eax, edx
	sar	eax, 2
	mov	DWORD PTR _n$[ebp], eax
$LN5@check:

; 2841 : 	if (n == 1)

	cmp	DWORD PTR _n$[ebp], 1
	jne	SHORT $LN6@check

; 2842 : 		return 1;

	mov	eax, 1
	jmp	SHORT $LN1@check
	jmp	SHORT $LN1@check
$LN6@check:

; 2843 : 	else
; 2844 : 		return 0;

	xor	eax, eax
$LN1@check:

; 2845 : }

	pop	edi
	pop	esi
	pop	ebx
	add	esp, 192				; 000000c0H
	cmp	ebp, esp
	call	__RTC_CheckEsp
	mov	esp, ebp
	pop	ebp
	ret	0
?check@@YAHH@Z ENDP					; check
_TEXT	ENDS
; Function compile flags: /Odtp /RTCsu /ZI
; File C:\Users\ilyak\Desktop\YAP\Курсач\сub_ver_2.0.cpp
;	COMDAT ?cub@@YAPAPAHHPAPAH@Z
_TEXT	SEGMENT
_j$1 = -120						; size = 4
_i$2 = -108						; size = 4
_j$3 = -96						; size = 4
_i$4 = -84						; size = 4
_sum$5 = -72						; size = 4
_k$6 = -60						; size = 4
_j$7 = -48						; size = 4
_table$8 = -36						; size = 4
_i$9 = -24						; size = 4
_flag$10 = -12						; size = 4
__$ArrayPad$ = -4					; size = 4
_n$ = 8							; size = 4
_tab$ = 12						; size = 4
?cub@@YAPAPAHHPAPAH@Z PROC				; cub, COMDAT

; 2742 : int** cub(int n, int** tab) {

	push	ebp
	mov	ebp, esp
	sub	esp, 316				; 0000013cH
	push	ebx
	push	esi
	push	edi
	lea	edi, DWORD PTR [ebp-124]
	mov	ecx, 31					; 0000001fH
	mov	eax, -858993460				; ccccccccH
	rep stosd
	mov	eax, DWORD PTR ___security_cookie
	xor	eax, ebp
	mov	DWORD PTR __$ArrayPad$[ebp], eax
	mov	ecx, OFFSET __1C12C7C8_сub_ver_2@0@cpp
	call	@__CheckForDebuggerJustMyCode@4

; 2743 : 	if (n == 1)

	cmp	DWORD PTR _n$[ebp], 1
	jne	SHORT $LN23@cub

; 2744 : 		printf("1");

	push	OFFSET ??_C@_01HIHLOKLC@1@
	call	_printf
	add	esp, 4
	jmp	$LN1@cub
$LN23@cub:

; 2745 : 	else if (n == 2)

	cmp	DWORD PTR _n$[ebp], 2
	jne	SHORT $LN25@cub

; 2746 : 		printf("1 4\n2 3");

	push	OFFSET ??_C@_07FPFIAEAJ@1?54?62?53@
	call	_printf
	add	esp, 4
	jmp	$LN1@cub
$LN25@cub:

; 2747 : 	else {
; 2748 : 		int flag = 0;

	mov	DWORD PTR _flag$10[ebp], 0

; 2749 : 		int i;
; 2750 : 		int** table = (int**)malloc(n * sizeof(*table));

	xor	ecx, ecx
	mov	eax, DWORD PTR _n$[ebp]
	mov	edx, 4
	mul	edx
	seto	cl
	neg	ecx
	or	ecx, eax
	mov	esi, esp
	push	ecx
	call	DWORD PTR __imp__malloc
	add	esp, 4
	cmp	esi, esp
	call	__RTC_CheckEsp
	mov	DWORD PTR _table$8[ebp], eax

; 2751 : 		for (i = 0; i < n; i++)

	mov	DWORD PTR _i$9[ebp], 0
	jmp	SHORT $LN4@cub
$LN2@cub:
	mov	eax, DWORD PTR _i$9[ebp]
	add	eax, 1
	mov	DWORD PTR _i$9[ebp], eax
$LN4@cub:
	mov	eax, DWORD PTR _i$9[ebp]
	cmp	eax, DWORD PTR _n$[ebp]
	jge	SHORT $LN3@cub

; 2752 : 			table[i] = (int*)malloc(n * sizeof(table));

	xor	ecx, ecx
	mov	eax, DWORD PTR _n$[ebp]
	mov	edx, 4
	mul	edx
	seto	cl
	neg	ecx
	or	ecx, eax
	mov	esi, esp
	push	ecx
	call	DWORD PTR __imp__malloc
	add	esp, 4
	cmp	esi, esp
	call	__RTC_CheckEsp
	mov	ecx, DWORD PTR _i$9[ebp]
	mov	edx, DWORD PTR _table$8[ebp]
	mov	DWORD PTR [edx+ecx*4], eax
	jmp	SHORT $LN2@cub
$LN3@cub:

; 2753 : 		int j;
; 2754 : 
; 2755 : 		//зануляем
; 2756 : 		for (i = 0; i < n; i++) {

	mov	DWORD PTR _i$9[ebp], 0
	jmp	SHORT $LN7@cub
$LN5@cub:
	mov	eax, DWORD PTR _i$9[ebp]
	add	eax, 1
	mov	DWORD PTR _i$9[ebp], eax
$LN7@cub:
	mov	eax, DWORD PTR _i$9[ebp]
	cmp	eax, DWORD PTR _n$[ebp]
	jge	SHORT $LN6@cub

; 2757 : 			for (j = 0; j < n; j++)

	mov	DWORD PTR _j$7[ebp], 0
	jmp	SHORT $LN10@cub
$LN8@cub:
	mov	eax, DWORD PTR _j$7[ebp]
	add	eax, 1
	mov	DWORD PTR _j$7[ebp], eax
$LN10@cub:
	mov	eax, DWORD PTR _j$7[ebp]
	cmp	eax, DWORD PTR _n$[ebp]
	jge	SHORT $LN9@cub

; 2758 : 				table[i][j] = 0;

	mov	eax, DWORD PTR _i$9[ebp]
	mov	ecx, DWORD PTR _table$8[ebp]
	mov	edx, DWORD PTR [ecx+eax*4]
	mov	eax, DWORD PTR _j$7[ebp]
	mov	DWORD PTR [edx+eax*4], 0
	jmp	SHORT $LN8@cub
$LN9@cub:

; 2759 : 		}

	jmp	SHORT $LN5@cub
$LN6@cub:

; 2760 : 
; 2761 : 		j = 0 /*строки*/;

	mov	DWORD PTR _j$7[ebp], 0

; 2762 : 		int k = 0 /*столбцы*/;

	mov	DWORD PTR _k$6[ebp], 0

; 2763 : 
; 2764 : 		i = 1;

	mov	DWORD PTR _i$9[ebp], 1

; 2765 : 		//первый квадрант всегда одинаковый drurddlld
; 2766 : 		table[j++][k] = i++;

	mov	eax, DWORD PTR _j$7[ebp]
	mov	ecx, DWORD PTR _table$8[ebp]
	mov	edx, DWORD PTR [ecx+eax*4]
	mov	eax, DWORD PTR _k$6[ebp]
	mov	ecx, DWORD PTR _i$9[ebp]
	mov	DWORD PTR [edx+eax*4], ecx
	mov	edx, DWORD PTR _j$7[ebp]
	add	edx, 1
	mov	DWORD PTR _j$7[ebp], edx
	mov	eax, DWORD PTR _i$9[ebp]
	add	eax, 1
	mov	DWORD PTR _i$9[ebp], eax

; 2767 : 		table[j][k++] = i++;

	mov	eax, DWORD PTR _j$7[ebp]
	mov	ecx, DWORD PTR _table$8[ebp]
	mov	edx, DWORD PTR [ecx+eax*4]
	mov	eax, DWORD PTR _k$6[ebp]
	mov	ecx, DWORD PTR _i$9[ebp]
	mov	DWORD PTR [edx+eax*4], ecx
	mov	edx, DWORD PTR _k$6[ebp]
	add	edx, 1
	mov	DWORD PTR _k$6[ebp], edx
	mov	eax, DWORD PTR _i$9[ebp]
	add	eax, 1
	mov	DWORD PTR _i$9[ebp], eax

; 2768 : 		table[j--][k] = i++;

	mov	eax, DWORD PTR _j$7[ebp]
	mov	ecx, DWORD PTR _table$8[ebp]
	mov	edx, DWORD PTR [ecx+eax*4]
	mov	eax, DWORD PTR _k$6[ebp]
	mov	ecx, DWORD PTR _i$9[ebp]
	mov	DWORD PTR [edx+eax*4], ecx
	mov	edx, DWORD PTR _j$7[ebp]
	sub	edx, 1
	mov	DWORD PTR _j$7[ebp], edx
	mov	eax, DWORD PTR _i$9[ebp]
	add	eax, 1
	mov	DWORD PTR _i$9[ebp], eax

; 2769 : 		table[j][k++] = i++;

	mov	eax, DWORD PTR _j$7[ebp]
	mov	ecx, DWORD PTR _table$8[ebp]
	mov	edx, DWORD PTR [ecx+eax*4]
	mov	eax, DWORD PTR _k$6[ebp]
	mov	ecx, DWORD PTR _i$9[ebp]
	mov	DWORD PTR [edx+eax*4], ecx
	mov	edx, DWORD PTR _k$6[ebp]
	add	edx, 1
	mov	DWORD PTR _k$6[ebp], edx
	mov	eax, DWORD PTR _i$9[ebp]
	add	eax, 1
	mov	DWORD PTR _i$9[ebp], eax

; 2770 : 		table[j++][k] = i++;

	mov	eax, DWORD PTR _j$7[ebp]
	mov	ecx, DWORD PTR _table$8[ebp]
	mov	edx, DWORD PTR [ecx+eax*4]
	mov	eax, DWORD PTR _k$6[ebp]
	mov	ecx, DWORD PTR _i$9[ebp]
	mov	DWORD PTR [edx+eax*4], ecx
	mov	edx, DWORD PTR _j$7[ebp]
	add	edx, 1
	mov	DWORD PTR _j$7[ebp], edx
	mov	eax, DWORD PTR _i$9[ebp]
	add	eax, 1
	mov	DWORD PTR _i$9[ebp], eax

; 2771 : 		table[j++][k] = i++;

	mov	eax, DWORD PTR _j$7[ebp]
	mov	ecx, DWORD PTR _table$8[ebp]
	mov	edx, DWORD PTR [ecx+eax*4]
	mov	eax, DWORD PTR _k$6[ebp]
	mov	ecx, DWORD PTR _i$9[ebp]
	mov	DWORD PTR [edx+eax*4], ecx
	mov	edx, DWORD PTR _j$7[ebp]
	add	edx, 1
	mov	DWORD PTR _j$7[ebp], edx
	mov	eax, DWORD PTR _i$9[ebp]
	add	eax, 1
	mov	DWORD PTR _i$9[ebp], eax

; 2772 : 		table[j][k--] = i++;

	mov	eax, DWORD PTR _j$7[ebp]
	mov	ecx, DWORD PTR _table$8[ebp]
	mov	edx, DWORD PTR [ecx+eax*4]
	mov	eax, DWORD PTR _k$6[ebp]
	mov	ecx, DWORD PTR _i$9[ebp]
	mov	DWORD PTR [edx+eax*4], ecx
	mov	edx, DWORD PTR _k$6[ebp]
	sub	edx, 1
	mov	DWORD PTR _k$6[ebp], edx
	mov	eax, DWORD PTR _i$9[ebp]
	add	eax, 1
	mov	DWORD PTR _i$9[ebp], eax

; 2773 : 		table[j][k--] = i++;

	mov	eax, DWORD PTR _j$7[ebp]
	mov	ecx, DWORD PTR _table$8[ebp]
	mov	edx, DWORD PTR [ecx+eax*4]
	mov	eax, DWORD PTR _k$6[ebp]
	mov	ecx, DWORD PTR _i$9[ebp]
	mov	DWORD PTR [edx+eax*4], ecx
	mov	edx, DWORD PTR _k$6[ebp]
	sub	edx, 1
	mov	DWORD PTR _k$6[ebp], edx
	mov	eax, DWORD PTR _i$9[ebp]
	add	eax, 1
	mov	DWORD PTR _i$9[ebp], eax

; 2774 : 		table[j++][k] = i++;

	mov	eax, DWORD PTR _j$7[ebp]
	mov	ecx, DWORD PTR _table$8[ebp]
	mov	edx, DWORD PTR [ecx+eax*4]
	mov	eax, DWORD PTR _k$6[ebp]
	mov	ecx, DWORD PTR _i$9[ebp]
	mov	DWORD PTR [edx+eax*4], ecx
	mov	edx, DWORD PTR _j$7[ebp]
	add	edx, 1
	mov	DWORD PTR _j$7[ebp], edx
	mov	eax, DWORD PTR _i$9[ebp]
	add	eax, 1
	mov	DWORD PTR _i$9[ebp], eax

; 2775 : 
; 2776 : 		//второй квадрант
; 2777 : 		if ((n * n) % 4 == 0) { //ddrrulurr

	mov	eax, DWORD PTR _n$[ebp]
	imul	eax, DWORD PTR _n$[ebp]
	and	eax, -2147483645			; 80000003H
	jns	SHORT $LN35@cub
	dec	eax
	or	eax, -4					; fffffffcH
	inc	eax
$LN35@cub:
	test	eax, eax
	jne	$LN27@cub

; 2778 : 			table[j++][k] = i++;

	mov	eax, DWORD PTR _j$7[ebp]
	mov	ecx, DWORD PTR _table$8[ebp]
	mov	edx, DWORD PTR [ecx+eax*4]
	mov	eax, DWORD PTR _k$6[ebp]
	mov	ecx, DWORD PTR _i$9[ebp]
	mov	DWORD PTR [edx+eax*4], ecx
	mov	edx, DWORD PTR _j$7[ebp]
	add	edx, 1
	mov	DWORD PTR _j$7[ebp], edx
	mov	eax, DWORD PTR _i$9[ebp]
	add	eax, 1
	mov	DWORD PTR _i$9[ebp], eax

; 2779 : 			table[j++][k] = i++;

	mov	eax, DWORD PTR _j$7[ebp]
	mov	ecx, DWORD PTR _table$8[ebp]
	mov	edx, DWORD PTR [ecx+eax*4]
	mov	eax, DWORD PTR _k$6[ebp]
	mov	ecx, DWORD PTR _i$9[ebp]
	mov	DWORD PTR [edx+eax*4], ecx
	mov	edx, DWORD PTR _j$7[ebp]
	add	edx, 1
	mov	DWORD PTR _j$7[ebp], edx
	mov	eax, DWORD PTR _i$9[ebp]
	add	eax, 1
	mov	DWORD PTR _i$9[ebp], eax

; 2780 : 			table[j][k++] = i++;

	mov	eax, DWORD PTR _j$7[ebp]
	mov	ecx, DWORD PTR _table$8[ebp]
	mov	edx, DWORD PTR [ecx+eax*4]
	mov	eax, DWORD PTR _k$6[ebp]
	mov	ecx, DWORD PTR _i$9[ebp]
	mov	DWORD PTR [edx+eax*4], ecx
	mov	edx, DWORD PTR _k$6[ebp]
	add	edx, 1
	mov	DWORD PTR _k$6[ebp], edx
	mov	eax, DWORD PTR _i$9[ebp]
	add	eax, 1
	mov	DWORD PTR _i$9[ebp], eax

; 2781 : 			table[j][k++] = i++;

	mov	eax, DWORD PTR _j$7[ebp]
	mov	ecx, DWORD PTR _table$8[ebp]
	mov	edx, DWORD PTR [ecx+eax*4]
	mov	eax, DWORD PTR _k$6[ebp]
	mov	ecx, DWORD PTR _i$9[ebp]
	mov	DWORD PTR [edx+eax*4], ecx
	mov	edx, DWORD PTR _k$6[ebp]
	add	edx, 1
	mov	DWORD PTR _k$6[ebp], edx
	mov	eax, DWORD PTR _i$9[ebp]
	add	eax, 1
	mov	DWORD PTR _i$9[ebp], eax

; 2782 : 			table[j--][k] = i++;

	mov	eax, DWORD PTR _j$7[ebp]
	mov	ecx, DWORD PTR _table$8[ebp]
	mov	edx, DWORD PTR [ecx+eax*4]
	mov	eax, DWORD PTR _k$6[ebp]
	mov	ecx, DWORD PTR _i$9[ebp]
	mov	DWORD PTR [edx+eax*4], ecx
	mov	edx, DWORD PTR _j$7[ebp]
	sub	edx, 1
	mov	DWORD PTR _j$7[ebp], edx
	mov	eax, DWORD PTR _i$9[ebp]
	add	eax, 1
	mov	DWORD PTR _i$9[ebp], eax

; 2783 : 			table[j][k--] = i++;

	mov	eax, DWORD PTR _j$7[ebp]
	mov	ecx, DWORD PTR _table$8[ebp]
	mov	edx, DWORD PTR [ecx+eax*4]
	mov	eax, DWORD PTR _k$6[ebp]
	mov	ecx, DWORD PTR _i$9[ebp]
	mov	DWORD PTR [edx+eax*4], ecx
	mov	edx, DWORD PTR _k$6[ebp]
	sub	edx, 1
	mov	DWORD PTR _k$6[ebp], edx
	mov	eax, DWORD PTR _i$9[ebp]
	add	eax, 1
	mov	DWORD PTR _i$9[ebp], eax

; 2784 : 			table[j--][k] = i++;

	mov	eax, DWORD PTR _j$7[ebp]
	mov	ecx, DWORD PTR _table$8[ebp]
	mov	edx, DWORD PTR [ecx+eax*4]
	mov	eax, DWORD PTR _k$6[ebp]
	mov	ecx, DWORD PTR _i$9[ebp]
	mov	DWORD PTR [edx+eax*4], ecx
	mov	edx, DWORD PTR _j$7[ebp]
	sub	edx, 1
	mov	DWORD PTR _j$7[ebp], edx
	mov	eax, DWORD PTR _i$9[ebp]
	add	eax, 1
	mov	DWORD PTR _i$9[ebp], eax

; 2785 : 			table[j][k++] = i++;

	mov	eax, DWORD PTR _j$7[ebp]
	mov	ecx, DWORD PTR _table$8[ebp]
	mov	edx, DWORD PTR [ecx+eax*4]
	mov	eax, DWORD PTR _k$6[ebp]
	mov	ecx, DWORD PTR _i$9[ebp]
	mov	DWORD PTR [edx+eax*4], ecx
	mov	edx, DWORD PTR _k$6[ebp]
	add	edx, 1
	mov	DWORD PTR _k$6[ebp], edx
	mov	eax, DWORD PTR _i$9[ebp]
	add	eax, 1
	mov	DWORD PTR _i$9[ebp], eax

; 2786 : 			table[j][k] = i++;

	mov	eax, DWORD PTR _j$7[ebp]
	mov	ecx, DWORD PTR _table$8[ebp]
	mov	edx, DWORD PTR [ecx+eax*4]
	mov	eax, DWORD PTR _k$6[ebp]
	mov	ecx, DWORD PTR _i$9[ebp]
	mov	DWORD PTR [edx+eax*4], ecx
	mov	edx, DWORD PTR _i$9[ebp]
	add	edx, 1
	mov	DWORD PTR _i$9[ebp], edx

; 2787 : 			//table[j][k + 1] = (*i)++;
; 2788 : 
; 2789 : 			flag = 23;

	mov	DWORD PTR _flag$10[ebp], 23		; 00000017H

; 2790 : 		}

	jmp	$LN28@cub
$LN27@cub:

; 2791 : 		else {//rrdlldrrd
; 2792 : 			table[j][k++] = i++;

	mov	eax, DWORD PTR _j$7[ebp]
	mov	ecx, DWORD PTR _table$8[ebp]
	mov	edx, DWORD PTR [ecx+eax*4]
	mov	eax, DWORD PTR _k$6[ebp]
	mov	ecx, DWORD PTR _i$9[ebp]
	mov	DWORD PTR [edx+eax*4], ecx
	mov	edx, DWORD PTR _k$6[ebp]
	add	edx, 1
	mov	DWORD PTR _k$6[ebp], edx
	mov	eax, DWORD PTR _i$9[ebp]
	add	eax, 1
	mov	DWORD PTR _i$9[ebp], eax

; 2793 : 			table[j][k++] = i++;

	mov	eax, DWORD PTR _j$7[ebp]
	mov	ecx, DWORD PTR _table$8[ebp]
	mov	edx, DWORD PTR [ecx+eax*4]
	mov	eax, DWORD PTR _k$6[ebp]
	mov	ecx, DWORD PTR _i$9[ebp]
	mov	DWORD PTR [edx+eax*4], ecx
	mov	edx, DWORD PTR _k$6[ebp]
	add	edx, 1
	mov	DWORD PTR _k$6[ebp], edx
	mov	eax, DWORD PTR _i$9[ebp]
	add	eax, 1
	mov	DWORD PTR _i$9[ebp], eax

; 2794 : 			table[j++][k] = i++;

	mov	eax, DWORD PTR _j$7[ebp]
	mov	ecx, DWORD PTR _table$8[ebp]
	mov	edx, DWORD PTR [ecx+eax*4]
	mov	eax, DWORD PTR _k$6[ebp]
	mov	ecx, DWORD PTR _i$9[ebp]
	mov	DWORD PTR [edx+eax*4], ecx
	mov	edx, DWORD PTR _j$7[ebp]
	add	edx, 1
	mov	DWORD PTR _j$7[ebp], edx
	mov	eax, DWORD PTR _i$9[ebp]
	add	eax, 1
	mov	DWORD PTR _i$9[ebp], eax

; 2795 : 			table[j][k--] = i++;

	mov	eax, DWORD PTR _j$7[ebp]
	mov	ecx, DWORD PTR _table$8[ebp]
	mov	edx, DWORD PTR [ecx+eax*4]
	mov	eax, DWORD PTR _k$6[ebp]
	mov	ecx, DWORD PTR _i$9[ebp]
	mov	DWORD PTR [edx+eax*4], ecx
	mov	edx, DWORD PTR _k$6[ebp]
	sub	edx, 1
	mov	DWORD PTR _k$6[ebp], edx
	mov	eax, DWORD PTR _i$9[ebp]
	add	eax, 1
	mov	DWORD PTR _i$9[ebp], eax

; 2796 : 			table[j][k--] = i++;

	mov	eax, DWORD PTR _j$7[ebp]
	mov	ecx, DWORD PTR _table$8[ebp]
	mov	edx, DWORD PTR [ecx+eax*4]
	mov	eax, DWORD PTR _k$6[ebp]
	mov	ecx, DWORD PTR _i$9[ebp]
	mov	DWORD PTR [edx+eax*4], ecx
	mov	edx, DWORD PTR _k$6[ebp]
	sub	edx, 1
	mov	DWORD PTR _k$6[ebp], edx
	mov	eax, DWORD PTR _i$9[ebp]
	add	eax, 1
	mov	DWORD PTR _i$9[ebp], eax

; 2797 : 			table[j++][k] = i++;

	mov	eax, DWORD PTR _j$7[ebp]
	mov	ecx, DWORD PTR _table$8[ebp]
	mov	edx, DWORD PTR [ecx+eax*4]
	mov	eax, DWORD PTR _k$6[ebp]
	mov	ecx, DWORD PTR _i$9[ebp]
	mov	DWORD PTR [edx+eax*4], ecx
	mov	edx, DWORD PTR _j$7[ebp]
	add	edx, 1
	mov	DWORD PTR _j$7[ebp], edx
	mov	eax, DWORD PTR _i$9[ebp]
	add	eax, 1
	mov	DWORD PTR _i$9[ebp], eax

; 2798 : 			table[j][k++] = i++;

	mov	eax, DWORD PTR _j$7[ebp]
	mov	ecx, DWORD PTR _table$8[ebp]
	mov	edx, DWORD PTR [ecx+eax*4]
	mov	eax, DWORD PTR _k$6[ebp]
	mov	ecx, DWORD PTR _i$9[ebp]
	mov	DWORD PTR [edx+eax*4], ecx
	mov	edx, DWORD PTR _k$6[ebp]
	add	edx, 1
	mov	DWORD PTR _k$6[ebp], edx
	mov	eax, DWORD PTR _i$9[ebp]
	add	eax, 1
	mov	DWORD PTR _i$9[ebp], eax

; 2799 : 			table[j][k++] = i++;

	mov	eax, DWORD PTR _j$7[ebp]
	mov	ecx, DWORD PTR _table$8[ebp]
	mov	edx, DWORD PTR [ecx+eax*4]
	mov	eax, DWORD PTR _k$6[ebp]
	mov	ecx, DWORD PTR _i$9[ebp]
	mov	DWORD PTR [edx+eax*4], ecx
	mov	edx, DWORD PTR _k$6[ebp]
	add	edx, 1
	mov	DWORD PTR _k$6[ebp], edx
	mov	eax, DWORD PTR _i$9[ebp]
	add	eax, 1
	mov	DWORD PTR _i$9[ebp], eax

; 2800 : 			table[j][k] = i++;

	mov	eax, DWORD PTR _j$7[ebp]
	mov	ecx, DWORD PTR _table$8[ebp]
	mov	edx, DWORD PTR [ecx+eax*4]
	mov	eax, DWORD PTR _k$6[ebp]
	mov	ecx, DWORD PTR _i$9[ebp]
	mov	DWORD PTR [edx+eax*4], ecx
	mov	edx, DWORD PTR _i$9[ebp]
	add	edx, 1
	mov	DWORD PTR _i$9[ebp], edx

; 2801 : 
; 2802 : 			flag = 39;

	mov	DWORD PTR _flag$10[ebp], 39		; 00000027H
$LN28@cub:

; 2803 : 		}
; 2804 : 		int sum = n * n - 18;

	mov	eax, DWORD PTR _n$[ebp]
	imul	eax, DWORD PTR _n$[ebp]
	sub	eax, 18					; 00000012H
	mov	DWORD PTR _sum$5[ebp], eax

; 2805 : 
; 2806 : 
; 2807 : 		if (tab == 0) {

	cmp	DWORD PTR _tab$[ebp], 0
	jne	$LN29@cub

; 2808 : 			flag = cub_9(table, flag, i, j, k, n, &sum, 0, -1, -1, -1);

	push	-1
	push	-1
	push	-1
	push	0
	lea	eax, DWORD PTR _sum$5[ebp]
	push	eax
	mov	ecx, DWORD PTR _n$[ebp]
	push	ecx
	mov	edx, DWORD PTR _k$6[ebp]
	push	edx
	mov	eax, DWORD PTR _j$7[ebp]
	push	eax
	mov	ecx, DWORD PTR _i$9[ebp]
	push	ecx
	mov	edx, DWORD PTR _flag$10[ebp]
	push	edx
	mov	eax, DWORD PTR _table$8[ebp]
	push	eax
	call	?cub_9@@YAHPAPAHHHHHHPAH0HHH@Z		; cub_9
	add	esp, 44					; 0000002cH
	mov	DWORD PTR _flag$10[ebp], eax

; 2809 : 			//printf("flag=%d\n", flag);
; 2810 : 
; 2811 : 			//печатаем
; 2812 : 			for (int i = 0; i < n; i++) {

	mov	DWORD PTR _i$4[ebp], 0
	jmp	SHORT $LN13@cub
$LN11@cub:
	mov	eax, DWORD PTR _i$4[ebp]
	add	eax, 1
	mov	DWORD PTR _i$4[ebp], eax
$LN13@cub:
	mov	eax, DWORD PTR _i$4[ebp]
	cmp	eax, DWORD PTR _n$[ebp]
	jge	SHORT $LN12@cub

; 2813 : 				for (int j = 0; j < n; j++)

	mov	DWORD PTR _j$3[ebp], 0
	jmp	SHORT $LN16@cub
$LN14@cub:
	mov	eax, DWORD PTR _j$3[ebp]
	add	eax, 1
	mov	DWORD PTR _j$3[ebp], eax
$LN16@cub:
	mov	eax, DWORD PTR _j$3[ebp]
	cmp	eax, DWORD PTR _n$[ebp]
	jge	SHORT $LN15@cub

; 2814 : 					printf("%3d ", table[i][j]);

	mov	eax, DWORD PTR _i$4[ebp]
	mov	ecx, DWORD PTR _table$8[ebp]
	mov	edx, DWORD PTR [ecx+eax*4]
	mov	eax, DWORD PTR _j$3[ebp]
	mov	ecx, DWORD PTR [edx+eax*4]
	push	ecx
	push	OFFSET ??_C@_04IDILIIH@?$CF3d?5@
	call	_printf
	add	esp, 8
	jmp	SHORT $LN14@cub
$LN15@cub:

; 2815 : 				printf("\n");

	push	OFFSET ??_C@_01EEMJAFIK@?6@
	call	_printf
	add	esp, 4

; 2816 : 			}

	jmp	SHORT $LN11@cub
$LN12@cub:

; 2817 : 			printf("\n");

	push	OFFSET ??_C@_01EEMJAFIK@?6@
	call	_printf
	add	esp, 4

; 2818 : 		}

	jmp	$LN30@cub
$LN29@cub:

; 2819 : 		else {
; 2820 : 			flag = cub_9(table, flag, i, j, k, n, &sum, tab, 2, 1, 0);

	push	0
	push	1
	push	2
	mov	eax, DWORD PTR _tab$[ebp]
	push	eax
	lea	ecx, DWORD PTR _sum$5[ebp]
	push	ecx
	mov	edx, DWORD PTR _n$[ebp]
	push	edx
	mov	eax, DWORD PTR _k$6[ebp]
	push	eax
	mov	ecx, DWORD PTR _j$7[ebp]
	push	ecx
	mov	edx, DWORD PTR _i$9[ebp]
	push	edx
	mov	eax, DWORD PTR _flag$10[ebp]
	push	eax
	mov	ecx, DWORD PTR _table$8[ebp]
	push	ecx
	call	?cub_9@@YAHPAPAHHHHHHPAH0HHH@Z		; cub_9
	add	esp, 44					; 0000002cH
	mov	DWORD PTR _flag$10[ebp], eax

; 2821 : 			for (int i = 0; i < n; i++) {

	mov	DWORD PTR _i$2[ebp], 0
	jmp	SHORT $LN19@cub
$LN17@cub:
	mov	eax, DWORD PTR _i$2[ebp]
	add	eax, 1
	mov	DWORD PTR _i$2[ebp], eax
$LN19@cub:
	mov	eax, DWORD PTR _i$2[ebp]
	cmp	eax, DWORD PTR _n$[ebp]
	jge	SHORT $LN18@cub

; 2822 : 				for (int j = 0; j < n; j++)

	mov	DWORD PTR _j$1[ebp], 0
	jmp	SHORT $LN22@cub
$LN20@cub:
	mov	eax, DWORD PTR _j$1[ebp]
	add	eax, 1
	mov	DWORD PTR _j$1[ebp], eax
$LN22@cub:
	mov	eax, DWORD PTR _j$1[ebp]
	cmp	eax, DWORD PTR _n$[ebp]
	jge	SHORT $LN21@cub

; 2823 : 					printf("%3d ", table[i][j]);

	mov	eax, DWORD PTR _i$2[ebp]
	mov	ecx, DWORD PTR _table$8[ebp]
	mov	edx, DWORD PTR [ecx+eax*4]
	mov	eax, DWORD PTR _j$1[ebp]
	mov	ecx, DWORD PTR [edx+eax*4]
	push	ecx
	push	OFFSET ??_C@_04IDILIIH@?$CF3d?5@
	call	_printf
	add	esp, 8
	jmp	SHORT $LN20@cub
$LN21@cub:

; 2824 : 				printf("\n");

	push	OFFSET ??_C@_01EEMJAFIK@?6@
	call	_printf
	add	esp, 4

; 2825 : 			}

	jmp	SHORT $LN17@cub
$LN18@cub:

; 2826 : 			printf("\n");

	push	OFFSET ??_C@_01EEMJAFIK@?6@
	call	_printf
	add	esp, 4
$LN30@cub:

; 2827 : 		}
; 2828 : 
; 2829 : 		return table;

	mov	eax, DWORD PTR _table$8[ebp]
$LN1@cub:

; 2830 : 	}
; 2831 : 
; 2832 : }

	push	edx
	mov	ecx, ebp
	push	eax
	lea	edx, DWORD PTR $LN34@cub
	call	@_RTC_CheckStackVars@8
	pop	eax
	pop	edx
	pop	edi
	pop	esi
	pop	ebx
	mov	ecx, DWORD PTR __$ArrayPad$[ebp]
	xor	ecx, ebp
	call	@__security_check_cookie@4
	add	esp, 316				; 0000013cH
	cmp	ebp, esp
	call	__RTC_CheckEsp
	mov	esp, ebp
	pop	ebp
	ret	0
	npad	2
$LN34@cub:
	DD	1
	DD	$LN33@cub
$LN33@cub:
	DD	-72					; ffffffb8H
	DD	4
	DD	$LN32@cub
$LN32@cub:
	DB	115					; 00000073H
	DB	117					; 00000075H
	DB	109					; 0000006dH
	DB	0
?cub@@YAPAPAHHPAPAH@Z ENDP				; cub
_TEXT	ENDS
; Function compile flags: /Odtp /RTCsu /ZI
; File C:\Users\ilyak\Desktop\YAP\Курсач\сub_ver_2.0.cpp
;	COMDAT ?cub_9@@YAHPAPAHHHHHHPAH0HHH@Z
_TEXT	SEGMENT
_result$1 = -776					; size = 4
_result$2 = -764					; size = 4
_result$3 = -752					; size = 4
_result$4 = -740					; size = 4
_result$5 = -728					; size = 4
_result$6 = -716					; size = 4
_result$7 = -704					; size = 4
_result$8 = -692					; size = 4
_result$9 = -680					; size = 4
_result$10 = -668					; size = 4
_result$11 = -656					; size = 4
_result$12 = -644					; size = 4
_result$13 = -632					; size = 4
_result$14 = -620					; size = 4
_result$15 = -608					; size = 4
_result$16 = -596					; size = 4
_result$17 = -584					; size = 4
_result$18 = -572					; size = 4
_result$19 = -560					; size = 4
_result$20 = -548					; size = 4
_result$21 = -536					; size = 4
_result$22 = -524					; size = 4
_result$23 = -512					; size = 4
_result$24 = -500					; size = 4
_result$25 = -488					; size = 4
_result$26 = -476					; size = 4
_result$27 = -464					; size = 4
_result$28 = -452					; size = 4
_result$29 = -440					; size = 4
_result$30 = -428					; size = 4
_result$31 = -416					; size = 4
_result$32 = -404					; size = 4
_result$33 = -392					; size = 4
_result$34 = -380					; size = 4
_result$35 = -368					; size = 4
_result$36 = -356					; size = 4
_result$37 = -344					; size = 4
_result$38 = -332					; size = 4
_result$39 = -320					; size = 4
_result$40 = -308					; size = 4
_result$41 = -296					; size = 4
_result$42 = -284					; size = 4
_result$43 = -272					; size = 4
_result$44 = -260					; size = 4
_result$45 = -248					; size = 4
_result$46 = -236					; size = 4
_result$47 = -224					; size = 4
_result$48 = -212					; size = 4
_result$49 = -200					; size = 4
_result$50 = -188					; size = 4
_result$51 = -176					; size = 4
_result$52 = -164					; size = 4
_result$53 = -152					; size = 4
_result$54 = -140					; size = 4
_result$55 = -128					; size = 4
_result$56 = -116					; size = 4
_result$57 = -104					; size = 4
_result$58 = -92					; size = 4
_result$59 = -80					; size = 4
_result$60 = -68					; size = 4
_result$61 = -56					; size = 4
_result$62 = -44					; size = 4
_result$63 = -32					; size = 4
_result$64 = -20					; size = 4
_f$ = -8						; size = 4
_table$ = 8						; size = 4
_flag$ = 12						; size = 4
_i$ = 16						; size = 4
_j$ = 20						; size = 4
_k$ = 24						; size = 4
_n$ = 28						; size = 4
_sum$ = 32						; size = 4
_tab$ = 36						; size = 4
_I$ = 40						; size = 4
_J$ = 44						; size = 4
_K$ = 48						; size = 4
?cub_9@@YAHPAPAHHHHHHPAH0HHH@Z PROC			; cub_9, COMDAT

; 5    : int cub_9(int** table, int flag, int i, int j, int k, int n, int* sum, int** tab, int I, int J, int K) {

	push	ebp
	mov	ebp, esp
	sub	esp, 1164				; 0000048cH
	push	ebx
	push	esi
	push	edi
	lea	edi, DWORD PTR [ebp-780]
	mov	ecx, 195				; 000000c3H
	mov	eax, -858993460				; ccccccccH
	rep stosd
	mov	ecx, OFFSET __1C12C7C8_сub_ver_2@0@cpp
	call	@__CheckForDebuggerJustMyCode@4

; 6    : 	/*for (int i = 0; i < n; i++) {
; 7    : 		for (int j = 0; j < n; j++)
; 8    : 			printf("%3d ", table[i][j]);
; 9    : 		printf("\n");
; 10   : 	}
; 11   : 	printf("\n flag = %d\n", flag);*/
; 12   : 	int f;
; 13   : 
; 14   : 
; 15   : 	//вызовы паттернов (n<10)
; 16   : 	if (tab != 0) {

	cmp	DWORD PTR _tab$[ebp], 0
	je	$LN2@cub_9

; 17   : 		if (*sum != 9 && table[0][n - 1] == 0) {

	mov	eax, DWORD PTR _sum$[ebp]
	cmp	DWORD PTR [eax], 9
	je	$LN4@cub_9
	mov	eax, 4
	imul	ecx, eax, 0
	mov	edx, DWORD PTR _table$[ebp]
	mov	eax, DWORD PTR [edx+ecx]
	mov	ecx, DWORD PTR _n$[ebp]
	cmp	DWORD PTR [eax+ecx*4-4], 0
	jne	$LN4@cub_9

; 18   : 			//центровыe
; 19   : 			if (table[0][n - 1] != n * n && flag == 13 || flag == 27) {

	mov	eax, 4
	imul	ecx, eax, 0
	mov	edx, DWORD PTR _table$[ebp]
	mov	eax, DWORD PTR [edx+ecx]
	mov	ecx, DWORD PTR _n$[ebp]
	imul	ecx, DWORD PTR _n$[ebp]
	mov	edx, DWORD PTR _n$[ebp]
	cmp	DWORD PTR [eax+edx*4-4], ecx
	je	SHORT $LN8@cub_9
	cmp	DWORD PTR _flag$[ebp], 13		; 0000000dH
	je	SHORT $LN7@cub_9
$LN8@cub_9:
	cmp	DWORD PTR _flag$[ebp], 27		; 0000001bH
	jne	$LN6@cub_9
$LN7@cub_9:

; 20   : 				if (table[0][n - 1] != n * n && flag == 13 && K != n / 3 - 1 && tab[J][K + 1] - tab[J][K] == 1) {

	mov	eax, 4
	imul	ecx, eax, 0
	mov	edx, DWORD PTR _table$[ebp]
	mov	eax, DWORD PTR [edx+ecx]
	mov	ecx, DWORD PTR _n$[ebp]
	imul	ecx, DWORD PTR _n$[ebp]
	mov	edx, DWORD PTR _n$[ebp]
	cmp	DWORD PTR [eax+edx*4-4], ecx
	je	$LN9@cub_9
	cmp	DWORD PTR _flag$[ebp], 13		; 0000000dH
	jne	$LN9@cub_9
	mov	eax, DWORD PTR _n$[ebp]
	cdq
	mov	ecx, 3
	idiv	ecx
	sub	eax, 1
	cmp	DWORD PTR _K$[ebp], eax
	je	$LN9@cub_9
	mov	eax, DWORD PTR _J$[ebp]
	mov	ecx, DWORD PTR _tab$[ebp]
	mov	edx, DWORD PTR [ecx+eax*4]
	mov	eax, DWORD PTR _J$[ebp]
	mov	ecx, DWORD PTR _tab$[ebp]
	mov	eax, DWORD PTR [ecx+eax*4]
	mov	ecx, DWORD PTR _K$[ebp]
	mov	esi, DWORD PTR _K$[ebp]
	mov	edx, DWORD PTR [edx+ecx*4+4]
	sub	edx, DWORD PTR [eax+esi*4]
	cmp	edx, 1
	jne	$LN9@cub_9

; 21   : 					k++;

	mov	eax, DWORD PTR _k$[ebp]
	add	eax, 1
	mov	DWORD PTR _k$[ebp], eax

; 22   : 					K++;

	mov	eax, DWORD PTR _K$[ebp]
	add	eax, 1
	mov	DWORD PTR _K$[ebp], eax

; 23   : 					////c_1(table, &i, &j, &k);
; 24   : 
; 25   : 					table[j++][k] = i++;

	mov	eax, DWORD PTR _j$[ebp]
	mov	ecx, DWORD PTR _table$[ebp]
	mov	edx, DWORD PTR [ecx+eax*4]
	mov	eax, DWORD PTR _k$[ebp]
	mov	ecx, DWORD PTR _i$[ebp]
	mov	DWORD PTR [edx+eax*4], ecx
	mov	edx, DWORD PTR _j$[ebp]
	add	edx, 1
	mov	DWORD PTR _j$[ebp], edx
	mov	eax, DWORD PTR _i$[ebp]
	add	eax, 1
	mov	DWORD PTR _i$[ebp], eax

; 26   : 					table[j][k++] = i++;

	mov	eax, DWORD PTR _j$[ebp]
	mov	ecx, DWORD PTR _table$[ebp]
	mov	edx, DWORD PTR [ecx+eax*4]
	mov	eax, DWORD PTR _k$[ebp]
	mov	ecx, DWORD PTR _i$[ebp]
	mov	DWORD PTR [edx+eax*4], ecx
	mov	edx, DWORD PTR _k$[ebp]
	add	edx, 1
	mov	DWORD PTR _k$[ebp], edx
	mov	eax, DWORD PTR _i$[ebp]
	add	eax, 1
	mov	DWORD PTR _i$[ebp], eax

; 27   : 					table[j--][k] = i++;

	mov	eax, DWORD PTR _j$[ebp]
	mov	ecx, DWORD PTR _table$[ebp]
	mov	edx, DWORD PTR [ecx+eax*4]
	mov	eax, DWORD PTR _k$[ebp]
	mov	ecx, DWORD PTR _i$[ebp]
	mov	DWORD PTR [edx+eax*4], ecx
	mov	edx, DWORD PTR _j$[ebp]
	sub	edx, 1
	mov	DWORD PTR _j$[ebp], edx
	mov	eax, DWORD PTR _i$[ebp]
	add	eax, 1
	mov	DWORD PTR _i$[ebp], eax

; 28   : 					table[j][k++] = i++;

	mov	eax, DWORD PTR _j$[ebp]
	mov	ecx, DWORD PTR _table$[ebp]
	mov	edx, DWORD PTR [ecx+eax*4]
	mov	eax, DWORD PTR _k$[ebp]
	mov	ecx, DWORD PTR _i$[ebp]
	mov	DWORD PTR [edx+eax*4], ecx
	mov	edx, DWORD PTR _k$[ebp]
	add	edx, 1
	mov	DWORD PTR _k$[ebp], edx
	mov	eax, DWORD PTR _i$[ebp]
	add	eax, 1
	mov	DWORD PTR _i$[ebp], eax

; 29   : 					table[j++][k] = i++;

	mov	eax, DWORD PTR _j$[ebp]
	mov	ecx, DWORD PTR _table$[ebp]
	mov	edx, DWORD PTR [ecx+eax*4]
	mov	eax, DWORD PTR _k$[ebp]
	mov	ecx, DWORD PTR _i$[ebp]
	mov	DWORD PTR [edx+eax*4], ecx
	mov	edx, DWORD PTR _j$[ebp]
	add	edx, 1
	mov	DWORD PTR _j$[ebp], edx
	mov	eax, DWORD PTR _i$[ebp]
	add	eax, 1
	mov	DWORD PTR _i$[ebp], eax

; 30   : 					table[j++][k] = i++;

	mov	eax, DWORD PTR _j$[ebp]
	mov	ecx, DWORD PTR _table$[ebp]
	mov	edx, DWORD PTR [ecx+eax*4]
	mov	eax, DWORD PTR _k$[ebp]
	mov	ecx, DWORD PTR _i$[ebp]
	mov	DWORD PTR [edx+eax*4], ecx
	mov	edx, DWORD PTR _j$[ebp]
	add	edx, 1
	mov	DWORD PTR _j$[ebp], edx
	mov	eax, DWORD PTR _i$[ebp]
	add	eax, 1
	mov	DWORD PTR _i$[ebp], eax

; 31   : 					table[j][k--] = i++;

	mov	eax, DWORD PTR _j$[ebp]
	mov	ecx, DWORD PTR _table$[ebp]
	mov	edx, DWORD PTR [ecx+eax*4]
	mov	eax, DWORD PTR _k$[ebp]
	mov	ecx, DWORD PTR _i$[ebp]
	mov	DWORD PTR [edx+eax*4], ecx
	mov	edx, DWORD PTR _k$[ebp]
	sub	edx, 1
	mov	DWORD PTR _k$[ebp], edx
	mov	eax, DWORD PTR _i$[ebp]
	add	eax, 1
	mov	DWORD PTR _i$[ebp], eax

; 32   : 					table[j][k--] = i++;

	mov	eax, DWORD PTR _j$[ebp]
	mov	ecx, DWORD PTR _table$[ebp]
	mov	edx, DWORD PTR [ecx+eax*4]
	mov	eax, DWORD PTR _k$[ebp]
	mov	ecx, DWORD PTR _i$[ebp]
	mov	DWORD PTR [edx+eax*4], ecx
	mov	edx, DWORD PTR _k$[ebp]
	sub	edx, 1
	mov	DWORD PTR _k$[ebp], edx
	mov	eax, DWORD PTR _i$[ebp]
	add	eax, 1
	mov	DWORD PTR _i$[ebp], eax

; 33   : 					table[j][k] = i++;

	mov	eax, DWORD PTR _j$[ebp]
	mov	ecx, DWORD PTR _table$[ebp]
	mov	edx, DWORD PTR [ecx+eax*4]
	mov	eax, DWORD PTR _k$[ebp]
	mov	ecx, DWORD PTR _i$[ebp]
	mov	DWORD PTR [edx+eax*4], ecx
	mov	edx, DWORD PTR _i$[ebp]
	add	edx, 1
	mov	DWORD PTR _i$[ebp], edx

; 34   : 
; 35   : 				}

	jmp	$LN10@cub_9
$LN9@cub_9:

; 36   : 				else if (J != n / 3 - 1 && J != 0 && tab[J - 1][K] - tab[J][K] == 1) {

	mov	eax, DWORD PTR _n$[ebp]
	cdq
	mov	ecx, 3
	idiv	ecx
	sub	eax, 1
	cmp	DWORD PTR _J$[ebp], eax
	je	$LN10@cub_9
	cmp	DWORD PTR _J$[ebp], 0
	je	$LN10@cub_9
	mov	eax, DWORD PTR _J$[ebp]
	mov	ecx, DWORD PTR _tab$[ebp]
	mov	edx, DWORD PTR [ecx+eax*4-4]
	mov	eax, DWORD PTR _J$[ebp]
	mov	ecx, DWORD PTR _tab$[ebp]
	mov	eax, DWORD PTR [ecx+eax*4]
	mov	ecx, DWORD PTR _K$[ebp]
	mov	esi, DWORD PTR _K$[ebp]
	mov	edx, DWORD PTR [edx+ecx*4]
	sub	edx, DWORD PTR [eax+esi*4]
	cmp	edx, 1
	jne	$LN10@cub_9

; 37   : 					j++;

	mov	eax, DWORD PTR _j$[ebp]
	add	eax, 1
	mov	DWORD PTR _j$[ebp], eax

; 38   : 					J++;

	mov	eax, DWORD PTR _J$[ebp]
	add	eax, 1
	mov	DWORD PTR _J$[ebp], eax

; 39   : 					////c_1(table, &i, &j, &k);
; 40   : 
; 41   : 					table[j++][k] = i++;

	mov	eax, DWORD PTR _j$[ebp]
	mov	ecx, DWORD PTR _table$[ebp]
	mov	edx, DWORD PTR [ecx+eax*4]
	mov	eax, DWORD PTR _k$[ebp]
	mov	ecx, DWORD PTR _i$[ebp]
	mov	DWORD PTR [edx+eax*4], ecx
	mov	edx, DWORD PTR _j$[ebp]
	add	edx, 1
	mov	DWORD PTR _j$[ebp], edx
	mov	eax, DWORD PTR _i$[ebp]
	add	eax, 1
	mov	DWORD PTR _i$[ebp], eax

; 42   : 					table[j][k++] = i++;

	mov	eax, DWORD PTR _j$[ebp]
	mov	ecx, DWORD PTR _table$[ebp]
	mov	edx, DWORD PTR [ecx+eax*4]
	mov	eax, DWORD PTR _k$[ebp]
	mov	ecx, DWORD PTR _i$[ebp]
	mov	DWORD PTR [edx+eax*4], ecx
	mov	edx, DWORD PTR _k$[ebp]
	add	edx, 1
	mov	DWORD PTR _k$[ebp], edx
	mov	eax, DWORD PTR _i$[ebp]
	add	eax, 1
	mov	DWORD PTR _i$[ebp], eax

; 43   : 					table[j--][k] = i++;

	mov	eax, DWORD PTR _j$[ebp]
	mov	ecx, DWORD PTR _table$[ebp]
	mov	edx, DWORD PTR [ecx+eax*4]
	mov	eax, DWORD PTR _k$[ebp]
	mov	ecx, DWORD PTR _i$[ebp]
	mov	DWORD PTR [edx+eax*4], ecx
	mov	edx, DWORD PTR _j$[ebp]
	sub	edx, 1
	mov	DWORD PTR _j$[ebp], edx
	mov	eax, DWORD PTR _i$[ebp]
	add	eax, 1
	mov	DWORD PTR _i$[ebp], eax

; 44   : 					table[j][k++] = i++;

	mov	eax, DWORD PTR _j$[ebp]
	mov	ecx, DWORD PTR _table$[ebp]
	mov	edx, DWORD PTR [ecx+eax*4]
	mov	eax, DWORD PTR _k$[ebp]
	mov	ecx, DWORD PTR _i$[ebp]
	mov	DWORD PTR [edx+eax*4], ecx
	mov	edx, DWORD PTR _k$[ebp]
	add	edx, 1
	mov	DWORD PTR _k$[ebp], edx
	mov	eax, DWORD PTR _i$[ebp]
	add	eax, 1
	mov	DWORD PTR _i$[ebp], eax

; 45   : 					table[j++][k] = i++;

	mov	eax, DWORD PTR _j$[ebp]
	mov	ecx, DWORD PTR _table$[ebp]
	mov	edx, DWORD PTR [ecx+eax*4]
	mov	eax, DWORD PTR _k$[ebp]
	mov	ecx, DWORD PTR _i$[ebp]
	mov	DWORD PTR [edx+eax*4], ecx
	mov	edx, DWORD PTR _j$[ebp]
	add	edx, 1
	mov	DWORD PTR _j$[ebp], edx
	mov	eax, DWORD PTR _i$[ebp]
	add	eax, 1
	mov	DWORD PTR _i$[ebp], eax

; 46   : 					table[j++][k] = i++;

	mov	eax, DWORD PTR _j$[ebp]
	mov	ecx, DWORD PTR _table$[ebp]
	mov	edx, DWORD PTR [ecx+eax*4]
	mov	eax, DWORD PTR _k$[ebp]
	mov	ecx, DWORD PTR _i$[ebp]
	mov	DWORD PTR [edx+eax*4], ecx
	mov	edx, DWORD PTR _j$[ebp]
	add	edx, 1
	mov	DWORD PTR _j$[ebp], edx
	mov	eax, DWORD PTR _i$[ebp]
	add	eax, 1
	mov	DWORD PTR _i$[ebp], eax

; 47   : 					table[j][k--] = i++;

	mov	eax, DWORD PTR _j$[ebp]
	mov	ecx, DWORD PTR _table$[ebp]
	mov	edx, DWORD PTR [ecx+eax*4]
	mov	eax, DWORD PTR _k$[ebp]
	mov	ecx, DWORD PTR _i$[ebp]
	mov	DWORD PTR [edx+eax*4], ecx
	mov	edx, DWORD PTR _k$[ebp]
	sub	edx, 1
	mov	DWORD PTR _k$[ebp], edx
	mov	eax, DWORD PTR _i$[ebp]
	add	eax, 1
	mov	DWORD PTR _i$[ebp], eax

; 48   : 					table[j][k--] = i++;

	mov	eax, DWORD PTR _j$[ebp]
	mov	ecx, DWORD PTR _table$[ebp]
	mov	edx, DWORD PTR [ecx+eax*4]
	mov	eax, DWORD PTR _k$[ebp]
	mov	ecx, DWORD PTR _i$[ebp]
	mov	DWORD PTR [edx+eax*4], ecx
	mov	edx, DWORD PTR _k$[ebp]
	sub	edx, 1
	mov	DWORD PTR _k$[ebp], edx
	mov	eax, DWORD PTR _i$[ebp]
	add	eax, 1
	mov	DWORD PTR _i$[ebp], eax

; 49   : 					table[j][k] = i++;

	mov	eax, DWORD PTR _j$[ebp]
	mov	ecx, DWORD PTR _table$[ebp]
	mov	edx, DWORD PTR [ecx+eax*4]
	mov	eax, DWORD PTR _k$[ebp]
	mov	ecx, DWORD PTR _i$[ebp]
	mov	DWORD PTR [edx+eax*4], ecx
	mov	edx, DWORD PTR _i$[ebp]
	add	edx, 1
	mov	DWORD PTR _i$[ebp], edx
$LN10@cub_9:

; 50   : 
; 51   : 				}
; 52   : 				*sum -= 9;

	mov	eax, DWORD PTR _sum$[ebp]
	mov	ecx, DWORD PTR [eax]
	sub	ecx, 9
	mov	edx, DWORD PTR _sum$[ebp]
	mov	DWORD PTR [edx], ecx

; 53   : 				f = flag;

	mov	eax, DWORD PTR _flag$[ebp]
	mov	DWORD PTR _f$[ebp], eax

; 54   : 				int result = cub_9(table, 17, i, j, k, n, sum, tab, I, J, K);

	mov	eax, DWORD PTR _K$[ebp]
	push	eax
	mov	ecx, DWORD PTR _J$[ebp]
	push	ecx
	mov	edx, DWORD PTR _I$[ebp]
	push	edx
	mov	eax, DWORD PTR _tab$[ebp]
	push	eax
	mov	ecx, DWORD PTR _sum$[ebp]
	push	ecx
	mov	edx, DWORD PTR _n$[ebp]
	push	edx
	mov	eax, DWORD PTR _k$[ebp]
	push	eax
	mov	ecx, DWORD PTR _j$[ebp]
	push	ecx
	mov	edx, DWORD PTR _i$[ebp]
	push	edx
	push	17					; 00000011H
	mov	eax, DWORD PTR _table$[ebp]
	push	eax
	call	?cub_9@@YAHPAPAHHHHHHPAH0HHH@Z		; cub_9
	add	esp, 44					; 0000002cH
	mov	DWORD PTR _result$64[ebp], eax

; 55   : 				if (result == -1 && table[0][n - 1] != n*n) {

	cmp	DWORD PTR _result$64[ebp], -1
	jne	$LN6@cub_9
	mov	eax, 4
	imul	ecx, eax, 0
	mov	edx, DWORD PTR _table$[ebp]
	mov	eax, DWORD PTR [edx+ecx]
	mov	ecx, DWORD PTR _n$[ebp]
	imul	ecx, DWORD PTR _n$[ebp]
	mov	edx, DWORD PTR _n$[ebp]
	cmp	DWORD PTR [eax+edx*4-4], ecx
	je	$LN6@cub_9

; 56   : 					////c_11(table, &i, &j, &k);
; 57   : 
; 58   : 					i = i - 9;

	mov	eax, DWORD PTR _i$[ebp]
	sub	eax, 9
	mov	DWORD PTR _i$[ebp], eax

; 59   : 					table[j][k++] = 0;

	mov	eax, DWORD PTR _j$[ebp]
	mov	ecx, DWORD PTR _table$[ebp]
	mov	edx, DWORD PTR [ecx+eax*4]
	mov	eax, DWORD PTR _k$[ebp]
	mov	DWORD PTR [edx+eax*4], 0
	mov	ecx, DWORD PTR _k$[ebp]
	add	ecx, 1
	mov	DWORD PTR _k$[ebp], ecx

; 60   : 					table[j][k++] = 0;

	mov	eax, DWORD PTR _j$[ebp]
	mov	ecx, DWORD PTR _table$[ebp]
	mov	edx, DWORD PTR [ecx+eax*4]
	mov	eax, DWORD PTR _k$[ebp]
	mov	DWORD PTR [edx+eax*4], 0
	mov	ecx, DWORD PTR _k$[ebp]
	add	ecx, 1
	mov	DWORD PTR _k$[ebp], ecx

; 61   : 					table[j--][k] = 0;

	mov	eax, DWORD PTR _j$[ebp]
	mov	ecx, DWORD PTR _table$[ebp]
	mov	edx, DWORD PTR [ecx+eax*4]
	mov	eax, DWORD PTR _k$[ebp]
	mov	DWORD PTR [edx+eax*4], 0
	mov	ecx, DWORD PTR _j$[ebp]
	sub	ecx, 1
	mov	DWORD PTR _j$[ebp], ecx

; 62   : 					table[j--][k] = 0;

	mov	eax, DWORD PTR _j$[ebp]
	mov	ecx, DWORD PTR _table$[ebp]
	mov	edx, DWORD PTR [ecx+eax*4]
	mov	eax, DWORD PTR _k$[ebp]
	mov	DWORD PTR [edx+eax*4], 0
	mov	ecx, DWORD PTR _j$[ebp]
	sub	ecx, 1
	mov	DWORD PTR _j$[ebp], ecx

; 63   : 					table[j][k--] = 0;

	mov	eax, DWORD PTR _j$[ebp]
	mov	ecx, DWORD PTR _table$[ebp]
	mov	edx, DWORD PTR [ecx+eax*4]
	mov	eax, DWORD PTR _k$[ebp]
	mov	DWORD PTR [edx+eax*4], 0
	mov	ecx, DWORD PTR _k$[ebp]
	sub	ecx, 1
	mov	DWORD PTR _k$[ebp], ecx

; 64   : 					table[j++][k] = 0;

	mov	eax, DWORD PTR _j$[ebp]
	mov	ecx, DWORD PTR _table$[ebp]
	mov	edx, DWORD PTR [ecx+eax*4]
	mov	eax, DWORD PTR _k$[ebp]
	mov	DWORD PTR [edx+eax*4], 0
	mov	ecx, DWORD PTR _j$[ebp]
	add	ecx, 1
	mov	DWORD PTR _j$[ebp], ecx

; 65   : 					table[j][k--] = 0;

	mov	eax, DWORD PTR _j$[ebp]
	mov	ecx, DWORD PTR _table$[ebp]
	mov	edx, DWORD PTR [ecx+eax*4]
	mov	eax, DWORD PTR _k$[ebp]
	mov	DWORD PTR [edx+eax*4], 0
	mov	ecx, DWORD PTR _k$[ebp]
	sub	ecx, 1
	mov	DWORD PTR _k$[ebp], ecx

; 66   : 					table[j--][k] = 0;

	mov	eax, DWORD PTR _j$[ebp]
	mov	ecx, DWORD PTR _table$[ebp]
	mov	edx, DWORD PTR [ecx+eax*4]
	mov	eax, DWORD PTR _k$[ebp]
	mov	DWORD PTR [edx+eax*4], 0
	mov	ecx, DWORD PTR _j$[ebp]
	sub	ecx, 1
	mov	DWORD PTR _j$[ebp], ecx

; 67   : 					table[j][k] = 0;

	mov	eax, DWORD PTR _j$[ebp]
	mov	ecx, DWORD PTR _table$[ebp]
	mov	edx, DWORD PTR [ecx+eax*4]
	mov	eax, DWORD PTR _k$[ebp]
	mov	DWORD PTR [edx+eax*4], 0

; 68   : 
; 69   : 					*sum += 9;

	mov	eax, DWORD PTR _sum$[ebp]
	mov	ecx, DWORD PTR [eax]
	add	ecx, 9
	mov	edx, DWORD PTR _sum$[ebp]
	mov	DWORD PTR [edx], ecx

; 70   : 					if (f == 13) {

	cmp	DWORD PTR _f$[ebp], 13			; 0000000dH
	jne	SHORT $LN13@cub_9

; 71   : 						K--;

	mov	eax, DWORD PTR _K$[ebp]
	sub	eax, 1
	mov	DWORD PTR _K$[ebp], eax

; 72   : 						k--;

	mov	eax, DWORD PTR _k$[ebp]
	sub	eax, 1
	mov	DWORD PTR _k$[ebp], eax

; 73   : 					}

	jmp	SHORT $LN6@cub_9
$LN13@cub_9:

; 74   : 					else {
; 75   : 						J--;

	mov	eax, DWORD PTR _J$[ebp]
	sub	eax, 1
	mov	DWORD PTR _J$[ebp], eax

; 76   : 						j--;

	mov	eax, DWORD PTR _j$[ebp]
	sub	eax, 1
	mov	DWORD PTR _j$[ebp], eax
$LN6@cub_9:

; 77   : 					}
; 78   : 				}
; 79   : 			}
; 80   : 			if (table[0][n - 1] != n * n && flag == 17 && J != n / 3 - 1 && tab[J + 1][K] - tab[J][K] == 1) {

	mov	eax, 4
	imul	ecx, eax, 0
	mov	edx, DWORD PTR _table$[ebp]
	mov	eax, DWORD PTR [edx+ecx]
	mov	ecx, DWORD PTR _n$[ebp]
	imul	ecx, DWORD PTR _n$[ebp]
	mov	edx, DWORD PTR _n$[ebp]
	cmp	DWORD PTR [eax+edx*4-4], ecx
	je	$LN15@cub_9
	cmp	DWORD PTR _flag$[ebp], 17		; 00000011H
	jne	$LN15@cub_9
	mov	eax, DWORD PTR _n$[ebp]
	cdq
	mov	ecx, 3
	idiv	ecx
	sub	eax, 1
	cmp	DWORD PTR _J$[ebp], eax
	je	$LN15@cub_9
	mov	eax, DWORD PTR _J$[ebp]
	mov	ecx, DWORD PTR _tab$[ebp]
	mov	edx, DWORD PTR [ecx+eax*4+4]
	mov	eax, DWORD PTR _J$[ebp]
	mov	ecx, DWORD PTR _tab$[ebp]
	mov	eax, DWORD PTR [ecx+eax*4]
	mov	ecx, DWORD PTR _K$[ebp]
	mov	esi, DWORD PTR _K$[ebp]
	mov	edx, DWORD PTR [edx+ecx*4]
	sub	edx, DWORD PTR [eax+esi*4]
	cmp	edx, 1
	jne	$LN15@cub_9

; 81   : 				j++;

	mov	eax, DWORD PTR _j$[ebp]
	add	eax, 1
	mov	DWORD PTR _j$[ebp], eax

; 82   : 				J++;

	mov	eax, DWORD PTR _J$[ebp]
	add	eax, 1
	mov	DWORD PTR _J$[ebp], eax

; 83   : 				////c_1(table, &i, &j, &k);
; 84   : 
; 85   : 				table[j++][k] = i++;

	mov	eax, DWORD PTR _j$[ebp]
	mov	ecx, DWORD PTR _table$[ebp]
	mov	edx, DWORD PTR [ecx+eax*4]
	mov	eax, DWORD PTR _k$[ebp]
	mov	ecx, DWORD PTR _i$[ebp]
	mov	DWORD PTR [edx+eax*4], ecx
	mov	edx, DWORD PTR _j$[ebp]
	add	edx, 1
	mov	DWORD PTR _j$[ebp], edx
	mov	eax, DWORD PTR _i$[ebp]
	add	eax, 1
	mov	DWORD PTR _i$[ebp], eax

; 86   : 				table[j][k++] = i++;

	mov	eax, DWORD PTR _j$[ebp]
	mov	ecx, DWORD PTR _table$[ebp]
	mov	edx, DWORD PTR [ecx+eax*4]
	mov	eax, DWORD PTR _k$[ebp]
	mov	ecx, DWORD PTR _i$[ebp]
	mov	DWORD PTR [edx+eax*4], ecx
	mov	edx, DWORD PTR _k$[ebp]
	add	edx, 1
	mov	DWORD PTR _k$[ebp], edx
	mov	eax, DWORD PTR _i$[ebp]
	add	eax, 1
	mov	DWORD PTR _i$[ebp], eax

; 87   : 				table[j--][k] = i++;

	mov	eax, DWORD PTR _j$[ebp]
	mov	ecx, DWORD PTR _table$[ebp]
	mov	edx, DWORD PTR [ecx+eax*4]
	mov	eax, DWORD PTR _k$[ebp]
	mov	ecx, DWORD PTR _i$[ebp]
	mov	DWORD PTR [edx+eax*4], ecx
	mov	edx, DWORD PTR _j$[ebp]
	sub	edx, 1
	mov	DWORD PTR _j$[ebp], edx
	mov	eax, DWORD PTR _i$[ebp]
	add	eax, 1
	mov	DWORD PTR _i$[ebp], eax

; 88   : 				table[j][k++] = i++;

	mov	eax, DWORD PTR _j$[ebp]
	mov	ecx, DWORD PTR _table$[ebp]
	mov	edx, DWORD PTR [ecx+eax*4]
	mov	eax, DWORD PTR _k$[ebp]
	mov	ecx, DWORD PTR _i$[ebp]
	mov	DWORD PTR [edx+eax*4], ecx
	mov	edx, DWORD PTR _k$[ebp]
	add	edx, 1
	mov	DWORD PTR _k$[ebp], edx
	mov	eax, DWORD PTR _i$[ebp]
	add	eax, 1
	mov	DWORD PTR _i$[ebp], eax

; 89   : 				table[j++][k] = i++;

	mov	eax, DWORD PTR _j$[ebp]
	mov	ecx, DWORD PTR _table$[ebp]
	mov	edx, DWORD PTR [ecx+eax*4]
	mov	eax, DWORD PTR _k$[ebp]
	mov	ecx, DWORD PTR _i$[ebp]
	mov	DWORD PTR [edx+eax*4], ecx
	mov	edx, DWORD PTR _j$[ebp]
	add	edx, 1
	mov	DWORD PTR _j$[ebp], edx
	mov	eax, DWORD PTR _i$[ebp]
	add	eax, 1
	mov	DWORD PTR _i$[ebp], eax

; 90   : 				table[j++][k] = i++;

	mov	eax, DWORD PTR _j$[ebp]
	mov	ecx, DWORD PTR _table$[ebp]
	mov	edx, DWORD PTR [ecx+eax*4]
	mov	eax, DWORD PTR _k$[ebp]
	mov	ecx, DWORD PTR _i$[ebp]
	mov	DWORD PTR [edx+eax*4], ecx
	mov	edx, DWORD PTR _j$[ebp]
	add	edx, 1
	mov	DWORD PTR _j$[ebp], edx
	mov	eax, DWORD PTR _i$[ebp]
	add	eax, 1
	mov	DWORD PTR _i$[ebp], eax

; 91   : 				table[j][k--] = i++;

	mov	eax, DWORD PTR _j$[ebp]
	mov	ecx, DWORD PTR _table$[ebp]
	mov	edx, DWORD PTR [ecx+eax*4]
	mov	eax, DWORD PTR _k$[ebp]
	mov	ecx, DWORD PTR _i$[ebp]
	mov	DWORD PTR [edx+eax*4], ecx
	mov	edx, DWORD PTR _k$[ebp]
	sub	edx, 1
	mov	DWORD PTR _k$[ebp], edx
	mov	eax, DWORD PTR _i$[ebp]
	add	eax, 1
	mov	DWORD PTR _i$[ebp], eax

; 92   : 				table[j][k--] = i++;

	mov	eax, DWORD PTR _j$[ebp]
	mov	ecx, DWORD PTR _table$[ebp]
	mov	edx, DWORD PTR [ecx+eax*4]
	mov	eax, DWORD PTR _k$[ebp]
	mov	ecx, DWORD PTR _i$[ebp]
	mov	DWORD PTR [edx+eax*4], ecx
	mov	edx, DWORD PTR _k$[ebp]
	sub	edx, 1
	mov	DWORD PTR _k$[ebp], edx
	mov	eax, DWORD PTR _i$[ebp]
	add	eax, 1
	mov	DWORD PTR _i$[ebp], eax

; 93   : 				table[j][k] = i++;

	mov	eax, DWORD PTR _j$[ebp]
	mov	ecx, DWORD PTR _table$[ebp]
	mov	edx, DWORD PTR [ecx+eax*4]
	mov	eax, DWORD PTR _k$[ebp]
	mov	ecx, DWORD PTR _i$[ebp]
	mov	DWORD PTR [edx+eax*4], ecx
	mov	edx, DWORD PTR _i$[ebp]
	add	edx, 1
	mov	DWORD PTR _i$[ebp], edx

; 94   : 
; 95   : 				*sum -= 9;

	mov	eax, DWORD PTR _sum$[ebp]
	mov	ecx, DWORD PTR [eax]
	sub	ecx, 9
	mov	edx, DWORD PTR _sum$[ebp]
	mov	DWORD PTR [edx], ecx

; 96   : 				int result = cub_9(table, 47, i, j, k, n, sum, tab, I, J, K);

	mov	eax, DWORD PTR _K$[ebp]
	push	eax
	mov	ecx, DWORD PTR _J$[ebp]
	push	ecx
	mov	edx, DWORD PTR _I$[ebp]
	push	edx
	mov	eax, DWORD PTR _tab$[ebp]
	push	eax
	mov	ecx, DWORD PTR _sum$[ebp]
	push	ecx
	mov	edx, DWORD PTR _n$[ebp]
	push	edx
	mov	eax, DWORD PTR _k$[ebp]
	push	eax
	mov	ecx, DWORD PTR _j$[ebp]
	push	ecx
	mov	edx, DWORD PTR _i$[ebp]
	push	edx
	push	47					; 0000002fH
	mov	eax, DWORD PTR _table$[ebp]
	push	eax
	call	?cub_9@@YAHPAPAHHHHHHPAH0HHH@Z		; cub_9
	add	esp, 44					; 0000002cH
	mov	DWORD PTR _result$63[ebp], eax

; 97   : 				if (result == -1 && table[0][n - 1] != n*n) {

	cmp	DWORD PTR _result$63[ebp], -1
	jne	$LN15@cub_9
	mov	eax, 4
	imul	ecx, eax, 0
	mov	edx, DWORD PTR _table$[ebp]
	mov	eax, DWORD PTR [edx+ecx]
	mov	ecx, DWORD PTR _n$[ebp]
	imul	ecx, DWORD PTR _n$[ebp]
	mov	edx, DWORD PTR _n$[ebp]
	cmp	DWORD PTR [eax+edx*4-4], ecx
	je	$LN15@cub_9

; 98   : 					////c_11(table, &i, &j, &k);
; 99   : 
; 100  : 					i = i - 9;

	mov	eax, DWORD PTR _i$[ebp]
	sub	eax, 9
	mov	DWORD PTR _i$[ebp], eax

; 101  : 					table[j][k++] = 0;

	mov	eax, DWORD PTR _j$[ebp]
	mov	ecx, DWORD PTR _table$[ebp]
	mov	edx, DWORD PTR [ecx+eax*4]
	mov	eax, DWORD PTR _k$[ebp]
	mov	DWORD PTR [edx+eax*4], 0
	mov	ecx, DWORD PTR _k$[ebp]
	add	ecx, 1
	mov	DWORD PTR _k$[ebp], ecx

; 102  : 					table[j][k++] = 0;

	mov	eax, DWORD PTR _j$[ebp]
	mov	ecx, DWORD PTR _table$[ebp]
	mov	edx, DWORD PTR [ecx+eax*4]
	mov	eax, DWORD PTR _k$[ebp]
	mov	DWORD PTR [edx+eax*4], 0
	mov	ecx, DWORD PTR _k$[ebp]
	add	ecx, 1
	mov	DWORD PTR _k$[ebp], ecx

; 103  : 					table[j--][k] = 0;

	mov	eax, DWORD PTR _j$[ebp]
	mov	ecx, DWORD PTR _table$[ebp]
	mov	edx, DWORD PTR [ecx+eax*4]
	mov	eax, DWORD PTR _k$[ebp]
	mov	DWORD PTR [edx+eax*4], 0
	mov	ecx, DWORD PTR _j$[ebp]
	sub	ecx, 1
	mov	DWORD PTR _j$[ebp], ecx

; 104  : 					table[j--][k] = 0;

	mov	eax, DWORD PTR _j$[ebp]
	mov	ecx, DWORD PTR _table$[ebp]
	mov	edx, DWORD PTR [ecx+eax*4]
	mov	eax, DWORD PTR _k$[ebp]
	mov	DWORD PTR [edx+eax*4], 0
	mov	ecx, DWORD PTR _j$[ebp]
	sub	ecx, 1
	mov	DWORD PTR _j$[ebp], ecx

; 105  : 					table[j][k--] = 0;

	mov	eax, DWORD PTR _j$[ebp]
	mov	ecx, DWORD PTR _table$[ebp]
	mov	edx, DWORD PTR [ecx+eax*4]
	mov	eax, DWORD PTR _k$[ebp]
	mov	DWORD PTR [edx+eax*4], 0
	mov	ecx, DWORD PTR _k$[ebp]
	sub	ecx, 1
	mov	DWORD PTR _k$[ebp], ecx

; 106  : 					table[j++][k] = 0;

	mov	eax, DWORD PTR _j$[ebp]
	mov	ecx, DWORD PTR _table$[ebp]
	mov	edx, DWORD PTR [ecx+eax*4]
	mov	eax, DWORD PTR _k$[ebp]
	mov	DWORD PTR [edx+eax*4], 0
	mov	ecx, DWORD PTR _j$[ebp]
	add	ecx, 1
	mov	DWORD PTR _j$[ebp], ecx

; 107  : 					table[j][k--] = 0;

	mov	eax, DWORD PTR _j$[ebp]
	mov	ecx, DWORD PTR _table$[ebp]
	mov	edx, DWORD PTR [ecx+eax*4]
	mov	eax, DWORD PTR _k$[ebp]
	mov	DWORD PTR [edx+eax*4], 0
	mov	ecx, DWORD PTR _k$[ebp]
	sub	ecx, 1
	mov	DWORD PTR _k$[ebp], ecx

; 108  : 					table[j--][k] = 0;

	mov	eax, DWORD PTR _j$[ebp]
	mov	ecx, DWORD PTR _table$[ebp]
	mov	edx, DWORD PTR [ecx+eax*4]
	mov	eax, DWORD PTR _k$[ebp]
	mov	DWORD PTR [edx+eax*4], 0
	mov	ecx, DWORD PTR _j$[ebp]
	sub	ecx, 1
	mov	DWORD PTR _j$[ebp], ecx

; 109  : 					table[j][k] = 0;

	mov	eax, DWORD PTR _j$[ebp]
	mov	ecx, DWORD PTR _table$[ebp]
	mov	edx, DWORD PTR [ecx+eax*4]
	mov	eax, DWORD PTR _k$[ebp]
	mov	DWORD PTR [edx+eax*4], 0

; 110  : 
; 111  : 					*sum += 9;

	mov	eax, DWORD PTR _sum$[ebp]
	mov	ecx, DWORD PTR [eax]
	add	ecx, 9
	mov	edx, DWORD PTR _sum$[ebp]
	mov	DWORD PTR [edx], ecx

; 112  : 					j--;

	mov	eax, DWORD PTR _j$[ebp]
	sub	eax, 1
	mov	DWORD PTR _j$[ebp], eax

; 113  : 					J--;

	mov	eax, DWORD PTR _J$[ebp]
	sub	eax, 1
	mov	DWORD PTR _J$[ebp], eax
$LN15@cub_9:

; 114  : 				}
; 115  : 			}
; 116  : 			if (table[0][n - 1] != n * n && flag == 13 || flag == 27) {

	mov	eax, 4
	imul	ecx, eax, 0
	mov	edx, DWORD PTR _table$[ebp]
	mov	eax, DWORD PTR [edx+ecx]
	mov	ecx, DWORD PTR _n$[ebp]
	imul	ecx, DWORD PTR _n$[ebp]
	mov	edx, DWORD PTR _n$[ebp]
	cmp	DWORD PTR [eax+edx*4-4], ecx
	je	SHORT $LN19@cub_9
	cmp	DWORD PTR _flag$[ebp], 13		; 0000000dH
	je	SHORT $LN18@cub_9
$LN19@cub_9:
	cmp	DWORD PTR _flag$[ebp], 27		; 0000001bH
	jne	$LN17@cub_9
$LN18@cub_9:

; 117  : 				if (table[0][n - 1] != n * n && flag == 13 && K != n / 3 - 1 && tab[J][K + 1] - tab[J][K] == 1) {

	mov	eax, 4
	imul	ecx, eax, 0
	mov	edx, DWORD PTR _table$[ebp]
	mov	eax, DWORD PTR [edx+ecx]
	mov	ecx, DWORD PTR _n$[ebp]
	imul	ecx, DWORD PTR _n$[ebp]
	mov	edx, DWORD PTR _n$[ebp]
	cmp	DWORD PTR [eax+edx*4-4], ecx
	je	$LN20@cub_9
	cmp	DWORD PTR _flag$[ebp], 13		; 0000000dH
	jne	$LN20@cub_9
	mov	eax, DWORD PTR _n$[ebp]
	cdq
	mov	ecx, 3
	idiv	ecx
	sub	eax, 1
	cmp	DWORD PTR _K$[ebp], eax
	je	$LN20@cub_9
	mov	eax, DWORD PTR _J$[ebp]
	mov	ecx, DWORD PTR _tab$[ebp]
	mov	edx, DWORD PTR [ecx+eax*4]
	mov	eax, DWORD PTR _J$[ebp]
	mov	ecx, DWORD PTR _tab$[ebp]
	mov	eax, DWORD PTR [ecx+eax*4]
	mov	ecx, DWORD PTR _K$[ebp]
	mov	esi, DWORD PTR _K$[ebp]
	mov	edx, DWORD PTR [edx+ecx*4+4]
	sub	edx, DWORD PTR [eax+esi*4]
	cmp	edx, 1
	jne	$LN20@cub_9

; 118  : 					k++;

	mov	eax, DWORD PTR _k$[ebp]
	add	eax, 1
	mov	DWORD PTR _k$[ebp], eax

; 119  : 					K++;

	mov	eax, DWORD PTR _K$[ebp]
	add	eax, 1
	mov	DWORD PTR _K$[ebp], eax

; 120  : 					////c_4(table, &i, &j, &k);
; 121  : 
; 122  : 					table[j][k++] = i++;

	mov	eax, DWORD PTR _j$[ebp]
	mov	ecx, DWORD PTR _table$[ebp]
	mov	edx, DWORD PTR [ecx+eax*4]
	mov	eax, DWORD PTR _k$[ebp]
	mov	ecx, DWORD PTR _i$[ebp]
	mov	DWORD PTR [edx+eax*4], ecx
	mov	edx, DWORD PTR _k$[ebp]
	add	edx, 1
	mov	DWORD PTR _k$[ebp], edx
	mov	eax, DWORD PTR _i$[ebp]
	add	eax, 1
	mov	DWORD PTR _i$[ebp], eax

; 123  : 					table[j++][k] = i++;

	mov	eax, DWORD PTR _j$[ebp]
	mov	ecx, DWORD PTR _table$[ebp]
	mov	edx, DWORD PTR [ecx+eax*4]
	mov	eax, DWORD PTR _k$[ebp]
	mov	ecx, DWORD PTR _i$[ebp]
	mov	DWORD PTR [edx+eax*4], ecx
	mov	edx, DWORD PTR _j$[ebp]
	add	edx, 1
	mov	DWORD PTR _j$[ebp], edx
	mov	eax, DWORD PTR _i$[ebp]
	add	eax, 1
	mov	DWORD PTR _i$[ebp], eax

; 124  : 					table[j][k--] = i++;

	mov	eax, DWORD PTR _j$[ebp]
	mov	ecx, DWORD PTR _table$[ebp]
	mov	edx, DWORD PTR [ecx+eax*4]
	mov	eax, DWORD PTR _k$[ebp]
	mov	ecx, DWORD PTR _i$[ebp]
	mov	DWORD PTR [edx+eax*4], ecx
	mov	edx, DWORD PTR _k$[ebp]
	sub	edx, 1
	mov	DWORD PTR _k$[ebp], edx
	mov	eax, DWORD PTR _i$[ebp]
	add	eax, 1
	mov	DWORD PTR _i$[ebp], eax

; 125  : 					table[j++][k] = i++;

	mov	eax, DWORD PTR _j$[ebp]
	mov	ecx, DWORD PTR _table$[ebp]
	mov	edx, DWORD PTR [ecx+eax*4]
	mov	eax, DWORD PTR _k$[ebp]
	mov	ecx, DWORD PTR _i$[ebp]
	mov	DWORD PTR [edx+eax*4], ecx
	mov	edx, DWORD PTR _j$[ebp]
	add	edx, 1
	mov	DWORD PTR _j$[ebp], edx
	mov	eax, DWORD PTR _i$[ebp]
	add	eax, 1
	mov	DWORD PTR _i$[ebp], eax

; 126  : 					table[j][k++] = i++;

	mov	eax, DWORD PTR _j$[ebp]
	mov	ecx, DWORD PTR _table$[ebp]
	mov	edx, DWORD PTR [ecx+eax*4]
	mov	eax, DWORD PTR _k$[ebp]
	mov	ecx, DWORD PTR _i$[ebp]
	mov	DWORD PTR [edx+eax*4], ecx
	mov	edx, DWORD PTR _k$[ebp]
	add	edx, 1
	mov	DWORD PTR _k$[ebp], edx
	mov	eax, DWORD PTR _i$[ebp]
	add	eax, 1
	mov	DWORD PTR _i$[ebp], eax

; 127  : 					table[j][k++] = i++;

	mov	eax, DWORD PTR _j$[ebp]
	mov	ecx, DWORD PTR _table$[ebp]
	mov	edx, DWORD PTR [ecx+eax*4]
	mov	eax, DWORD PTR _k$[ebp]
	mov	ecx, DWORD PTR _i$[ebp]
	mov	DWORD PTR [edx+eax*4], ecx
	mov	edx, DWORD PTR _k$[ebp]
	add	edx, 1
	mov	DWORD PTR _k$[ebp], edx
	mov	eax, DWORD PTR _i$[ebp]
	add	eax, 1
	mov	DWORD PTR _i$[ebp], eax

; 128  : 					table[j--][k] = i++;

	mov	eax, DWORD PTR _j$[ebp]
	mov	ecx, DWORD PTR _table$[ebp]
	mov	edx, DWORD PTR [ecx+eax*4]
	mov	eax, DWORD PTR _k$[ebp]
	mov	ecx, DWORD PTR _i$[ebp]
	mov	DWORD PTR [edx+eax*4], ecx
	mov	edx, DWORD PTR _j$[ebp]
	sub	edx, 1
	mov	DWORD PTR _j$[ebp], edx
	mov	eax, DWORD PTR _i$[ebp]
	add	eax, 1
	mov	DWORD PTR _i$[ebp], eax

; 129  : 					table[j--][k] = i++;

	mov	eax, DWORD PTR _j$[ebp]
	mov	ecx, DWORD PTR _table$[ebp]
	mov	edx, DWORD PTR [ecx+eax*4]
	mov	eax, DWORD PTR _k$[ebp]
	mov	ecx, DWORD PTR _i$[ebp]
	mov	DWORD PTR [edx+eax*4], ecx
	mov	edx, DWORD PTR _j$[ebp]
	sub	edx, 1
	mov	DWORD PTR _j$[ebp], edx
	mov	eax, DWORD PTR _i$[ebp]
	add	eax, 1
	mov	DWORD PTR _i$[ebp], eax

; 130  : 					table[j][k] = i++;

	mov	eax, DWORD PTR _j$[ebp]
	mov	ecx, DWORD PTR _table$[ebp]
	mov	edx, DWORD PTR [ecx+eax*4]
	mov	eax, DWORD PTR _k$[ebp]
	mov	ecx, DWORD PTR _i$[ebp]
	mov	DWORD PTR [edx+eax*4], ecx
	mov	edx, DWORD PTR _i$[ebp]
	add	edx, 1
	mov	DWORD PTR _i$[ebp], edx

; 131  : 
; 132  : 				}

	jmp	$LN21@cub_9
$LN20@cub_9:

; 133  : 				else if (J != n / 3 - 1 && J != n / 3 - 1 && tab[J + 1][K] - tab[J][K] == 1) {

	mov	eax, DWORD PTR _n$[ebp]
	cdq
	mov	ecx, 3
	idiv	ecx
	sub	eax, 1
	cmp	DWORD PTR _J$[ebp], eax
	je	$LN21@cub_9
	mov	eax, DWORD PTR _n$[ebp]
	cdq
	mov	ecx, 3
	idiv	ecx
	sub	eax, 1
	cmp	DWORD PTR _J$[ebp], eax
	je	$LN21@cub_9
	mov	eax, DWORD PTR _J$[ebp]
	mov	ecx, DWORD PTR _tab$[ebp]
	mov	edx, DWORD PTR [ecx+eax*4+4]
	mov	eax, DWORD PTR _J$[ebp]
	mov	ecx, DWORD PTR _tab$[ebp]
	mov	eax, DWORD PTR [ecx+eax*4]
	mov	ecx, DWORD PTR _K$[ebp]
	mov	esi, DWORD PTR _K$[ebp]
	mov	edx, DWORD PTR [edx+ecx*4]
	sub	edx, DWORD PTR [eax+esi*4]
	cmp	edx, 1
	jne	$LN21@cub_9

; 134  : 					j++;

	mov	eax, DWORD PTR _j$[ebp]
	add	eax, 1
	mov	DWORD PTR _j$[ebp], eax

; 135  : 					J++;

	mov	eax, DWORD PTR _J$[ebp]
	add	eax, 1
	mov	DWORD PTR _J$[ebp], eax

; 136  : 					////c_4(table, &i, &j, &k);
; 137  : 
; 138  : 					table[j][k++] = i++;

	mov	eax, DWORD PTR _j$[ebp]
	mov	ecx, DWORD PTR _table$[ebp]
	mov	edx, DWORD PTR [ecx+eax*4]
	mov	eax, DWORD PTR _k$[ebp]
	mov	ecx, DWORD PTR _i$[ebp]
	mov	DWORD PTR [edx+eax*4], ecx
	mov	edx, DWORD PTR _k$[ebp]
	add	edx, 1
	mov	DWORD PTR _k$[ebp], edx
	mov	eax, DWORD PTR _i$[ebp]
	add	eax, 1
	mov	DWORD PTR _i$[ebp], eax

; 139  : 					table[j++][k] = i++;

	mov	eax, DWORD PTR _j$[ebp]
	mov	ecx, DWORD PTR _table$[ebp]
	mov	edx, DWORD PTR [ecx+eax*4]
	mov	eax, DWORD PTR _k$[ebp]
	mov	ecx, DWORD PTR _i$[ebp]
	mov	DWORD PTR [edx+eax*4], ecx
	mov	edx, DWORD PTR _j$[ebp]
	add	edx, 1
	mov	DWORD PTR _j$[ebp], edx
	mov	eax, DWORD PTR _i$[ebp]
	add	eax, 1
	mov	DWORD PTR _i$[ebp], eax

; 140  : 					table[j][k--] = i++;

	mov	eax, DWORD PTR _j$[ebp]
	mov	ecx, DWORD PTR _table$[ebp]
	mov	edx, DWORD PTR [ecx+eax*4]
	mov	eax, DWORD PTR _k$[ebp]
	mov	ecx, DWORD PTR _i$[ebp]
	mov	DWORD PTR [edx+eax*4], ecx
	mov	edx, DWORD PTR _k$[ebp]
	sub	edx, 1
	mov	DWORD PTR _k$[ebp], edx
	mov	eax, DWORD PTR _i$[ebp]
	add	eax, 1
	mov	DWORD PTR _i$[ebp], eax

; 141  : 					table[j++][k] = i++;

	mov	eax, DWORD PTR _j$[ebp]
	mov	ecx, DWORD PTR _table$[ebp]
	mov	edx, DWORD PTR [ecx+eax*4]
	mov	eax, DWORD PTR _k$[ebp]
	mov	ecx, DWORD PTR _i$[ebp]
	mov	DWORD PTR [edx+eax*4], ecx
	mov	edx, DWORD PTR _j$[ebp]
	add	edx, 1
	mov	DWORD PTR _j$[ebp], edx
	mov	eax, DWORD PTR _i$[ebp]
	add	eax, 1
	mov	DWORD PTR _i$[ebp], eax

; 142  : 					table[j][k++] = i++;

	mov	eax, DWORD PTR _j$[ebp]
	mov	ecx, DWORD PTR _table$[ebp]
	mov	edx, DWORD PTR [ecx+eax*4]
	mov	eax, DWORD PTR _k$[ebp]
	mov	ecx, DWORD PTR _i$[ebp]
	mov	DWORD PTR [edx+eax*4], ecx
	mov	edx, DWORD PTR _k$[ebp]
	add	edx, 1
	mov	DWORD PTR _k$[ebp], edx
	mov	eax, DWORD PTR _i$[ebp]
	add	eax, 1
	mov	DWORD PTR _i$[ebp], eax

; 143  : 					table[j][k++] = i++;

	mov	eax, DWORD PTR _j$[ebp]
	mov	ecx, DWORD PTR _table$[ebp]
	mov	edx, DWORD PTR [ecx+eax*4]
	mov	eax, DWORD PTR _k$[ebp]
	mov	ecx, DWORD PTR _i$[ebp]
	mov	DWORD PTR [edx+eax*4], ecx
	mov	edx, DWORD PTR _k$[ebp]
	add	edx, 1
	mov	DWORD PTR _k$[ebp], edx
	mov	eax, DWORD PTR _i$[ebp]
	add	eax, 1
	mov	DWORD PTR _i$[ebp], eax

; 144  : 					table[j--][k] = i++;

	mov	eax, DWORD PTR _j$[ebp]
	mov	ecx, DWORD PTR _table$[ebp]
	mov	edx, DWORD PTR [ecx+eax*4]
	mov	eax, DWORD PTR _k$[ebp]
	mov	ecx, DWORD PTR _i$[ebp]
	mov	DWORD PTR [edx+eax*4], ecx
	mov	edx, DWORD PTR _j$[ebp]
	sub	edx, 1
	mov	DWORD PTR _j$[ebp], edx
	mov	eax, DWORD PTR _i$[ebp]
	add	eax, 1
	mov	DWORD PTR _i$[ebp], eax

; 145  : 					table[j--][k] = i++;

	mov	eax, DWORD PTR _j$[ebp]
	mov	ecx, DWORD PTR _table$[ebp]
	mov	edx, DWORD PTR [ecx+eax*4]
	mov	eax, DWORD PTR _k$[ebp]
	mov	ecx, DWORD PTR _i$[ebp]
	mov	DWORD PTR [edx+eax*4], ecx
	mov	edx, DWORD PTR _j$[ebp]
	sub	edx, 1
	mov	DWORD PTR _j$[ebp], edx
	mov	eax, DWORD PTR _i$[ebp]
	add	eax, 1
	mov	DWORD PTR _i$[ebp], eax

; 146  : 					table[j][k] = i++;

	mov	eax, DWORD PTR _j$[ebp]
	mov	ecx, DWORD PTR _table$[ebp]
	mov	edx, DWORD PTR [ecx+eax*4]
	mov	eax, DWORD PTR _k$[ebp]
	mov	ecx, DWORD PTR _i$[ebp]
	mov	DWORD PTR [edx+eax*4], ecx
	mov	edx, DWORD PTR _i$[ebp]
	add	edx, 1
	mov	DWORD PTR _i$[ebp], edx
$LN21@cub_9:

; 147  : 
; 148  : 				}
; 149  : 
; 150  : 				*sum -= 9;

	mov	eax, DWORD PTR _sum$[ebp]
	mov	ecx, DWORD PTR [eax]
	sub	ecx, 9
	mov	edx, DWORD PTR _sum$[ebp]
	mov	DWORD PTR [edx], ecx

; 151  : 				f = flag;

	mov	eax, DWORD PTR _flag$[ebp]
	mov	DWORD PTR _f$[ebp], eax

; 152  : 				int result = cub_9(table, 23, i, j, k, n, sum, tab, I, J, K);

	mov	eax, DWORD PTR _K$[ebp]
	push	eax
	mov	ecx, DWORD PTR _J$[ebp]
	push	ecx
	mov	edx, DWORD PTR _I$[ebp]
	push	edx
	mov	eax, DWORD PTR _tab$[ebp]
	push	eax
	mov	ecx, DWORD PTR _sum$[ebp]
	push	ecx
	mov	edx, DWORD PTR _n$[ebp]
	push	edx
	mov	eax, DWORD PTR _k$[ebp]
	push	eax
	mov	ecx, DWORD PTR _j$[ebp]
	push	ecx
	mov	edx, DWORD PTR _i$[ebp]
	push	edx
	push	23					; 00000017H
	mov	eax, DWORD PTR _table$[ebp]
	push	eax
	call	?cub_9@@YAHPAPAHHHHHHPAH0HHH@Z		; cub_9
	add	esp, 44					; 0000002cH
	mov	DWORD PTR _result$62[ebp], eax

; 153  : 				if (result == -1 && table[0][n - 1] != n*n) {

	cmp	DWORD PTR _result$62[ebp], -1
	jne	$LN17@cub_9
	mov	eax, 4
	imul	ecx, eax, 0
	mov	edx, DWORD PTR _table$[ebp]
	mov	eax, DWORD PTR [edx+ecx]
	mov	ecx, DWORD PTR _n$[ebp]
	imul	ecx, DWORD PTR _n$[ebp]
	mov	edx, DWORD PTR _n$[ebp]
	cmp	DWORD PTR [eax+edx*4-4], ecx
	je	$LN17@cub_9

; 154  : 					////c_44(table, &i, &j, &k);
; 155  : 
; 156  : 					i = i - 9;

	mov	eax, DWORD PTR _i$[ebp]
	sub	eax, 9
	mov	DWORD PTR _i$[ebp], eax

; 157  : 					table[j++][k] = 0;

	mov	eax, DWORD PTR _j$[ebp]
	mov	ecx, DWORD PTR _table$[ebp]
	mov	edx, DWORD PTR [ecx+eax*4]
	mov	eax, DWORD PTR _k$[ebp]
	mov	DWORD PTR [edx+eax*4], 0
	mov	ecx, DWORD PTR _j$[ebp]
	add	ecx, 1
	mov	DWORD PTR _j$[ebp], ecx

; 158  : 					table[j++][k] = 0;

	mov	eax, DWORD PTR _j$[ebp]
	mov	ecx, DWORD PTR _table$[ebp]
	mov	edx, DWORD PTR [ecx+eax*4]
	mov	eax, DWORD PTR _k$[ebp]
	mov	DWORD PTR [edx+eax*4], 0
	mov	ecx, DWORD PTR _j$[ebp]
	add	ecx, 1
	mov	DWORD PTR _j$[ebp], ecx

; 159  : 					table[j][k--] = 0;

	mov	eax, DWORD PTR _j$[ebp]
	mov	ecx, DWORD PTR _table$[ebp]
	mov	edx, DWORD PTR [ecx+eax*4]
	mov	eax, DWORD PTR _k$[ebp]
	mov	DWORD PTR [edx+eax*4], 0
	mov	ecx, DWORD PTR _k$[ebp]
	sub	ecx, 1
	mov	DWORD PTR _k$[ebp], ecx

; 160  : 					table[j][k--] = 0;

	mov	eax, DWORD PTR _j$[ebp]
	mov	ecx, DWORD PTR _table$[ebp]
	mov	edx, DWORD PTR [ecx+eax*4]
	mov	eax, DWORD PTR _k$[ebp]
	mov	DWORD PTR [edx+eax*4], 0
	mov	ecx, DWORD PTR _k$[ebp]
	sub	ecx, 1
	mov	DWORD PTR _k$[ebp], ecx

; 161  : 					table[j--][k] = 0;

	mov	eax, DWORD PTR _j$[ebp]
	mov	ecx, DWORD PTR _table$[ebp]
	mov	edx, DWORD PTR [ecx+eax*4]
	mov	eax, DWORD PTR _k$[ebp]
	mov	DWORD PTR [edx+eax*4], 0
	mov	ecx, DWORD PTR _j$[ebp]
	sub	ecx, 1
	mov	DWORD PTR _j$[ebp], ecx

; 162  : 					table[j][k++] = 0;

	mov	eax, DWORD PTR _j$[ebp]
	mov	ecx, DWORD PTR _table$[ebp]
	mov	edx, DWORD PTR [ecx+eax*4]
	mov	eax, DWORD PTR _k$[ebp]
	mov	DWORD PTR [edx+eax*4], 0
	mov	ecx, DWORD PTR _k$[ebp]
	add	ecx, 1
	mov	DWORD PTR _k$[ebp], ecx

; 163  : 					table[j--][k] = 0;

	mov	eax, DWORD PTR _j$[ebp]
	mov	ecx, DWORD PTR _table$[ebp]
	mov	edx, DWORD PTR [ecx+eax*4]
	mov	eax, DWORD PTR _k$[ebp]
	mov	DWORD PTR [edx+eax*4], 0
	mov	ecx, DWORD PTR _j$[ebp]
	sub	ecx, 1
	mov	DWORD PTR _j$[ebp], ecx

; 164  : 					table[j][k--] = 0;

	mov	eax, DWORD PTR _j$[ebp]
	mov	ecx, DWORD PTR _table$[ebp]
	mov	edx, DWORD PTR [ecx+eax*4]
	mov	eax, DWORD PTR _k$[ebp]
	mov	DWORD PTR [edx+eax*4], 0
	mov	ecx, DWORD PTR _k$[ebp]
	sub	ecx, 1
	mov	DWORD PTR _k$[ebp], ecx

; 165  : 					table[j][k] = 0;

	mov	eax, DWORD PTR _j$[ebp]
	mov	ecx, DWORD PTR _table$[ebp]
	mov	edx, DWORD PTR [ecx+eax*4]
	mov	eax, DWORD PTR _k$[ebp]
	mov	DWORD PTR [edx+eax*4], 0

; 166  : 
; 167  : 					*sum += 9;

	mov	eax, DWORD PTR _sum$[ebp]
	mov	ecx, DWORD PTR [eax]
	add	ecx, 9
	mov	edx, DWORD PTR _sum$[ebp]
	mov	DWORD PTR [edx], ecx

; 168  : 					if (f == 13) {

	cmp	DWORD PTR _f$[ebp], 13			; 0000000dH
	jne	SHORT $LN24@cub_9

; 169  : 						K--;

	mov	eax, DWORD PTR _K$[ebp]
	sub	eax, 1
	mov	DWORD PTR _K$[ebp], eax

; 170  : 						k--;

	mov	eax, DWORD PTR _k$[ebp]
	sub	eax, 1
	mov	DWORD PTR _k$[ebp], eax

; 171  : 					}

	jmp	SHORT $LN17@cub_9
$LN24@cub_9:

; 172  : 					else {
; 173  : 						J--;

	mov	eax, DWORD PTR _J$[ebp]
	sub	eax, 1
	mov	DWORD PTR _J$[ebp], eax

; 174  : 						j--;

	mov	eax, DWORD PTR _j$[ebp]
	sub	eax, 1
	mov	DWORD PTR _j$[ebp], eax
$LN17@cub_9:

; 175  : 					}
; 176  : 				}
; 177  : 			}
; 178  : 			if (table[0][n - 1] != n * n && flag == 23 && K != n / 3 - 1 && tab[J][K + 1] - tab[J][K] == 1) {

	mov	eax, 4
	imul	ecx, eax, 0
	mov	edx, DWORD PTR _table$[ebp]
	mov	eax, DWORD PTR [edx+ecx]
	mov	ecx, DWORD PTR _n$[ebp]
	imul	ecx, DWORD PTR _n$[ebp]
	mov	edx, DWORD PTR _n$[ebp]
	cmp	DWORD PTR [eax+edx*4-4], ecx
	je	$LN26@cub_9
	cmp	DWORD PTR _flag$[ebp], 23		; 00000017H
	jne	$LN26@cub_9
	mov	eax, DWORD PTR _n$[ebp]
	cdq
	mov	ecx, 3
	idiv	ecx
	sub	eax, 1
	cmp	DWORD PTR _K$[ebp], eax
	je	$LN26@cub_9
	mov	eax, DWORD PTR _J$[ebp]
	mov	ecx, DWORD PTR _tab$[ebp]
	mov	edx, DWORD PTR [ecx+eax*4]
	mov	eax, DWORD PTR _J$[ebp]
	mov	ecx, DWORD PTR _tab$[ebp]
	mov	eax, DWORD PTR [ecx+eax*4]
	mov	ecx, DWORD PTR _K$[ebp]
	mov	esi, DWORD PTR _K$[ebp]
	mov	edx, DWORD PTR [edx+ecx*4+4]
	sub	edx, DWORD PTR [eax+esi*4]
	cmp	edx, 1
	jne	$LN26@cub_9

; 179  : 				k++;

	mov	eax, DWORD PTR _k$[ebp]
	add	eax, 1
	mov	DWORD PTR _k$[ebp], eax

; 180  : 				K++;

	mov	eax, DWORD PTR _K$[ebp]
	add	eax, 1
	mov	DWORD PTR _K$[ebp], eax

; 181  : 				////c_4(table, &i, &j, &k);
; 182  : 
; 183  : 				table[j][k++] = i++;

	mov	eax, DWORD PTR _j$[ebp]
	mov	ecx, DWORD PTR _table$[ebp]
	mov	edx, DWORD PTR [ecx+eax*4]
	mov	eax, DWORD PTR _k$[ebp]
	mov	ecx, DWORD PTR _i$[ebp]
	mov	DWORD PTR [edx+eax*4], ecx
	mov	edx, DWORD PTR _k$[ebp]
	add	edx, 1
	mov	DWORD PTR _k$[ebp], edx
	mov	eax, DWORD PTR _i$[ebp]
	add	eax, 1
	mov	DWORD PTR _i$[ebp], eax

; 184  : 				table[j++][k] = i++;

	mov	eax, DWORD PTR _j$[ebp]
	mov	ecx, DWORD PTR _table$[ebp]
	mov	edx, DWORD PTR [ecx+eax*4]
	mov	eax, DWORD PTR _k$[ebp]
	mov	ecx, DWORD PTR _i$[ebp]
	mov	DWORD PTR [edx+eax*4], ecx
	mov	edx, DWORD PTR _j$[ebp]
	add	edx, 1
	mov	DWORD PTR _j$[ebp], edx
	mov	eax, DWORD PTR _i$[ebp]
	add	eax, 1
	mov	DWORD PTR _i$[ebp], eax

; 185  : 				table[j][k--] = i++;

	mov	eax, DWORD PTR _j$[ebp]
	mov	ecx, DWORD PTR _table$[ebp]
	mov	edx, DWORD PTR [ecx+eax*4]
	mov	eax, DWORD PTR _k$[ebp]
	mov	ecx, DWORD PTR _i$[ebp]
	mov	DWORD PTR [edx+eax*4], ecx
	mov	edx, DWORD PTR _k$[ebp]
	sub	edx, 1
	mov	DWORD PTR _k$[ebp], edx
	mov	eax, DWORD PTR _i$[ebp]
	add	eax, 1
	mov	DWORD PTR _i$[ebp], eax

; 186  : 				table[j++][k] = i++;

	mov	eax, DWORD PTR _j$[ebp]
	mov	ecx, DWORD PTR _table$[ebp]
	mov	edx, DWORD PTR [ecx+eax*4]
	mov	eax, DWORD PTR _k$[ebp]
	mov	ecx, DWORD PTR _i$[ebp]
	mov	DWORD PTR [edx+eax*4], ecx
	mov	edx, DWORD PTR _j$[ebp]
	add	edx, 1
	mov	DWORD PTR _j$[ebp], edx
	mov	eax, DWORD PTR _i$[ebp]
	add	eax, 1
	mov	DWORD PTR _i$[ebp], eax

; 187  : 				table[j][k++] = i++;

	mov	eax, DWORD PTR _j$[ebp]
	mov	ecx, DWORD PTR _table$[ebp]
	mov	edx, DWORD PTR [ecx+eax*4]
	mov	eax, DWORD PTR _k$[ebp]
	mov	ecx, DWORD PTR _i$[ebp]
	mov	DWORD PTR [edx+eax*4], ecx
	mov	edx, DWORD PTR _k$[ebp]
	add	edx, 1
	mov	DWORD PTR _k$[ebp], edx
	mov	eax, DWORD PTR _i$[ebp]
	add	eax, 1
	mov	DWORD PTR _i$[ebp], eax

; 188  : 				table[j][k++] = i++;

	mov	eax, DWORD PTR _j$[ebp]
	mov	ecx, DWORD PTR _table$[ebp]
	mov	edx, DWORD PTR [ecx+eax*4]
	mov	eax, DWORD PTR _k$[ebp]
	mov	ecx, DWORD PTR _i$[ebp]
	mov	DWORD PTR [edx+eax*4], ecx
	mov	edx, DWORD PTR _k$[ebp]
	add	edx, 1
	mov	DWORD PTR _k$[ebp], edx
	mov	eax, DWORD PTR _i$[ebp]
	add	eax, 1
	mov	DWORD PTR _i$[ebp], eax

; 189  : 				table[j--][k] = i++;

	mov	eax, DWORD PTR _j$[ebp]
	mov	ecx, DWORD PTR _table$[ebp]
	mov	edx, DWORD PTR [ecx+eax*4]
	mov	eax, DWORD PTR _k$[ebp]
	mov	ecx, DWORD PTR _i$[ebp]
	mov	DWORD PTR [edx+eax*4], ecx
	mov	edx, DWORD PTR _j$[ebp]
	sub	edx, 1
	mov	DWORD PTR _j$[ebp], edx
	mov	eax, DWORD PTR _i$[ebp]
	add	eax, 1
	mov	DWORD PTR _i$[ebp], eax

; 190  : 				table[j--][k] = i++;

	mov	eax, DWORD PTR _j$[ebp]
	mov	ecx, DWORD PTR _table$[ebp]
	mov	edx, DWORD PTR [ecx+eax*4]
	mov	eax, DWORD PTR _k$[ebp]
	mov	ecx, DWORD PTR _i$[ebp]
	mov	DWORD PTR [edx+eax*4], ecx
	mov	edx, DWORD PTR _j$[ebp]
	sub	edx, 1
	mov	DWORD PTR _j$[ebp], edx
	mov	eax, DWORD PTR _i$[ebp]
	add	eax, 1
	mov	DWORD PTR _i$[ebp], eax

; 191  : 				table[j][k] = i++;

	mov	eax, DWORD PTR _j$[ebp]
	mov	ecx, DWORD PTR _table$[ebp]
	mov	edx, DWORD PTR [ecx+eax*4]
	mov	eax, DWORD PTR _k$[ebp]
	mov	ecx, DWORD PTR _i$[ebp]
	mov	DWORD PTR [edx+eax*4], ecx
	mov	edx, DWORD PTR _i$[ebp]
	add	edx, 1
	mov	DWORD PTR _i$[ebp], edx

; 192  : 
; 193  : 				*sum -= 9;

	mov	eax, DWORD PTR _sum$[ebp]
	mov	ecx, DWORD PTR [eax]
	sub	ecx, 9
	mov	edx, DWORD PTR _sum$[ebp]
	mov	DWORD PTR [edx], ecx

; 194  : 				int result = cub_9(table, 33, i, j, k, n, sum, tab, I, J, K);

	mov	eax, DWORD PTR _K$[ebp]
	push	eax
	mov	ecx, DWORD PTR _J$[ebp]
	push	ecx
	mov	edx, DWORD PTR _I$[ebp]
	push	edx
	mov	eax, DWORD PTR _tab$[ebp]
	push	eax
	mov	ecx, DWORD PTR _sum$[ebp]
	push	ecx
	mov	edx, DWORD PTR _n$[ebp]
	push	edx
	mov	eax, DWORD PTR _k$[ebp]
	push	eax
	mov	ecx, DWORD PTR _j$[ebp]
	push	ecx
	mov	edx, DWORD PTR _i$[ebp]
	push	edx
	push	33					; 00000021H
	mov	eax, DWORD PTR _table$[ebp]
	push	eax
	call	?cub_9@@YAHPAPAHHHHHHPAH0HHH@Z		; cub_9
	add	esp, 44					; 0000002cH
	mov	DWORD PTR _result$61[ebp], eax

; 195  : 				if (result == -1 && table[0][n - 1] != n*n) {

	cmp	DWORD PTR _result$61[ebp], -1
	jne	$LN26@cub_9
	mov	eax, 4
	imul	ecx, eax, 0
	mov	edx, DWORD PTR _table$[ebp]
	mov	eax, DWORD PTR [edx+ecx]
	mov	ecx, DWORD PTR _n$[ebp]
	imul	ecx, DWORD PTR _n$[ebp]
	mov	edx, DWORD PTR _n$[ebp]
	cmp	DWORD PTR [eax+edx*4-4], ecx
	je	$LN26@cub_9

; 196  : 					////c_44(table, &i, &j, &k);
; 197  : 
; 198  : 					i = i - 9;

	mov	eax, DWORD PTR _i$[ebp]
	sub	eax, 9
	mov	DWORD PTR _i$[ebp], eax

; 199  : 					table[j++][k] = 0;

	mov	eax, DWORD PTR _j$[ebp]
	mov	ecx, DWORD PTR _table$[ebp]
	mov	edx, DWORD PTR [ecx+eax*4]
	mov	eax, DWORD PTR _k$[ebp]
	mov	DWORD PTR [edx+eax*4], 0
	mov	ecx, DWORD PTR _j$[ebp]
	add	ecx, 1
	mov	DWORD PTR _j$[ebp], ecx

; 200  : 					table[j++][k] = 0;

	mov	eax, DWORD PTR _j$[ebp]
	mov	ecx, DWORD PTR _table$[ebp]
	mov	edx, DWORD PTR [ecx+eax*4]
	mov	eax, DWORD PTR _k$[ebp]
	mov	DWORD PTR [edx+eax*4], 0
	mov	ecx, DWORD PTR _j$[ebp]
	add	ecx, 1
	mov	DWORD PTR _j$[ebp], ecx

; 201  : 					table[j][k--] = 0;

	mov	eax, DWORD PTR _j$[ebp]
	mov	ecx, DWORD PTR _table$[ebp]
	mov	edx, DWORD PTR [ecx+eax*4]
	mov	eax, DWORD PTR _k$[ebp]
	mov	DWORD PTR [edx+eax*4], 0
	mov	ecx, DWORD PTR _k$[ebp]
	sub	ecx, 1
	mov	DWORD PTR _k$[ebp], ecx

; 202  : 					table[j][k--] = 0;

	mov	eax, DWORD PTR _j$[ebp]
	mov	ecx, DWORD PTR _table$[ebp]
	mov	edx, DWORD PTR [ecx+eax*4]
	mov	eax, DWORD PTR _k$[ebp]
	mov	DWORD PTR [edx+eax*4], 0
	mov	ecx, DWORD PTR _k$[ebp]
	sub	ecx, 1
	mov	DWORD PTR _k$[ebp], ecx

; 203  : 					table[j--][k] = 0;

	mov	eax, DWORD PTR _j$[ebp]
	mov	ecx, DWORD PTR _table$[ebp]
	mov	edx, DWORD PTR [ecx+eax*4]
	mov	eax, DWORD PTR _k$[ebp]
	mov	DWORD PTR [edx+eax*4], 0
	mov	ecx, DWORD PTR _j$[ebp]
	sub	ecx, 1
	mov	DWORD PTR _j$[ebp], ecx

; 204  : 					table[j][k++] = 0;

	mov	eax, DWORD PTR _j$[ebp]
	mov	ecx, DWORD PTR _table$[ebp]
	mov	edx, DWORD PTR [ecx+eax*4]
	mov	eax, DWORD PTR _k$[ebp]
	mov	DWORD PTR [edx+eax*4], 0
	mov	ecx, DWORD PTR _k$[ebp]
	add	ecx, 1
	mov	DWORD PTR _k$[ebp], ecx

; 205  : 					table[j--][k] = 0;

	mov	eax, DWORD PTR _j$[ebp]
	mov	ecx, DWORD PTR _table$[ebp]
	mov	edx, DWORD PTR [ecx+eax*4]
	mov	eax, DWORD PTR _k$[ebp]
	mov	DWORD PTR [edx+eax*4], 0
	mov	ecx, DWORD PTR _j$[ebp]
	sub	ecx, 1
	mov	DWORD PTR _j$[ebp], ecx

; 206  : 					table[j][k--] = 0;

	mov	eax, DWORD PTR _j$[ebp]
	mov	ecx, DWORD PTR _table$[ebp]
	mov	edx, DWORD PTR [ecx+eax*4]
	mov	eax, DWORD PTR _k$[ebp]
	mov	DWORD PTR [edx+eax*4], 0
	mov	ecx, DWORD PTR _k$[ebp]
	sub	ecx, 1
	mov	DWORD PTR _k$[ebp], ecx

; 207  : 					table[j][k] = 0;

	mov	eax, DWORD PTR _j$[ebp]
	mov	ecx, DWORD PTR _table$[ebp]
	mov	edx, DWORD PTR [ecx+eax*4]
	mov	eax, DWORD PTR _k$[ebp]
	mov	DWORD PTR [edx+eax*4], 0

; 208  : 
; 209  : 					*sum += 9;

	mov	eax, DWORD PTR _sum$[ebp]
	mov	ecx, DWORD PTR [eax]
	add	ecx, 9
	mov	edx, DWORD PTR _sum$[ebp]
	mov	DWORD PTR [edx], ecx

; 210  : 					k--;

	mov	eax, DWORD PTR _k$[ebp]
	sub	eax, 1
	mov	DWORD PTR _k$[ebp], eax

; 211  : 					K--;

	mov	eax, DWORD PTR _K$[ebp]
	sub	eax, 1
	mov	DWORD PTR _K$[ebp], eax
$LN26@cub_9:

; 212  : 				}
; 213  : 			}
; 214  : 			if (table[0][n - 1] != n * n && flag == 29 || flag == 31) {

	mov	eax, 4
	imul	ecx, eax, 0
	mov	edx, DWORD PTR _table$[ebp]
	mov	eax, DWORD PTR [edx+ecx]
	mov	ecx, DWORD PTR _n$[ebp]
	imul	ecx, DWORD PTR _n$[ebp]
	mov	edx, DWORD PTR _n$[ebp]
	cmp	DWORD PTR [eax+edx*4-4], ecx
	je	SHORT $LN30@cub_9
	cmp	DWORD PTR _flag$[ebp], 29		; 0000001dH
	je	SHORT $LN29@cub_9
$LN30@cub_9:
	cmp	DWORD PTR _flag$[ebp], 31		; 0000001fH
	jne	$LN28@cub_9
$LN29@cub_9:

; 215  : 				if (table[0][n - 1] != n * n && flag == 31 && K != 0 && tab[J][K - 1] - tab[J][K] == 1) {

	mov	eax, 4
	imul	ecx, eax, 0
	mov	edx, DWORD PTR _table$[ebp]
	mov	eax, DWORD PTR [edx+ecx]
	mov	ecx, DWORD PTR _n$[ebp]
	imul	ecx, DWORD PTR _n$[ebp]
	mov	edx, DWORD PTR _n$[ebp]
	cmp	DWORD PTR [eax+edx*4-4], ecx
	je	$LN31@cub_9
	cmp	DWORD PTR _flag$[ebp], 31		; 0000001fH
	jne	$LN31@cub_9
	cmp	DWORD PTR _K$[ebp], 0
	je	$LN31@cub_9
	mov	eax, DWORD PTR _J$[ebp]
	mov	ecx, DWORD PTR _tab$[ebp]
	mov	edx, DWORD PTR [ecx+eax*4]
	mov	eax, DWORD PTR _J$[ebp]
	mov	ecx, DWORD PTR _tab$[ebp]
	mov	eax, DWORD PTR [ecx+eax*4]
	mov	ecx, DWORD PTR _K$[ebp]
	mov	esi, DWORD PTR _K$[ebp]
	mov	edx, DWORD PTR [edx+ecx*4-4]
	sub	edx, DWORD PTR [eax+esi*4]
	cmp	edx, 1
	jne	$LN31@cub_9

; 216  : 					k--;

	mov	eax, DWORD PTR _k$[ebp]
	sub	eax, 1
	mov	DWORD PTR _k$[ebp], eax

; 217  : 					K--;

	mov	eax, DWORD PTR _K$[ebp]
	sub	eax, 1
	mov	DWORD PTR _K$[ebp], eax

; 218  : 					////c_2(table, &i, &j, &k);
; 219  : 
; 220  : 					table[j++][k] = i++;

	mov	eax, DWORD PTR _j$[ebp]
	mov	ecx, DWORD PTR _table$[ebp]
	mov	edx, DWORD PTR [ecx+eax*4]
	mov	eax, DWORD PTR _k$[ebp]
	mov	ecx, DWORD PTR _i$[ebp]
	mov	DWORD PTR [edx+eax*4], ecx
	mov	edx, DWORD PTR _j$[ebp]
	add	edx, 1
	mov	DWORD PTR _j$[ebp], edx
	mov	eax, DWORD PTR _i$[ebp]
	add	eax, 1
	mov	DWORD PTR _i$[ebp], eax

; 221  : 					table[j][k--] = i++;

	mov	eax, DWORD PTR _j$[ebp]
	mov	ecx, DWORD PTR _table$[ebp]
	mov	edx, DWORD PTR [ecx+eax*4]
	mov	eax, DWORD PTR _k$[ebp]
	mov	ecx, DWORD PTR _i$[ebp]
	mov	DWORD PTR [edx+eax*4], ecx
	mov	edx, DWORD PTR _k$[ebp]
	sub	edx, 1
	mov	DWORD PTR _k$[ebp], edx
	mov	eax, DWORD PTR _i$[ebp]
	add	eax, 1
	mov	DWORD PTR _i$[ebp], eax

; 222  : 					table[j--][k] = i++;

	mov	eax, DWORD PTR _j$[ebp]
	mov	ecx, DWORD PTR _table$[ebp]
	mov	edx, DWORD PTR [ecx+eax*4]
	mov	eax, DWORD PTR _k$[ebp]
	mov	ecx, DWORD PTR _i$[ebp]
	mov	DWORD PTR [edx+eax*4], ecx
	mov	edx, DWORD PTR _j$[ebp]
	sub	edx, 1
	mov	DWORD PTR _j$[ebp], edx
	mov	eax, DWORD PTR _i$[ebp]
	add	eax, 1
	mov	DWORD PTR _i$[ebp], eax

; 223  : 					table[j][k--] = i++;

	mov	eax, DWORD PTR _j$[ebp]
	mov	ecx, DWORD PTR _table$[ebp]
	mov	edx, DWORD PTR [ecx+eax*4]
	mov	eax, DWORD PTR _k$[ebp]
	mov	ecx, DWORD PTR _i$[ebp]
	mov	DWORD PTR [edx+eax*4], ecx
	mov	edx, DWORD PTR _k$[ebp]
	sub	edx, 1
	mov	DWORD PTR _k$[ebp], edx
	mov	eax, DWORD PTR _i$[ebp]
	add	eax, 1
	mov	DWORD PTR _i$[ebp], eax

; 224  : 					table[j++][k] = i++;

	mov	eax, DWORD PTR _j$[ebp]
	mov	ecx, DWORD PTR _table$[ebp]
	mov	edx, DWORD PTR [ecx+eax*4]
	mov	eax, DWORD PTR _k$[ebp]
	mov	ecx, DWORD PTR _i$[ebp]
	mov	DWORD PTR [edx+eax*4], ecx
	mov	edx, DWORD PTR _j$[ebp]
	add	edx, 1
	mov	DWORD PTR _j$[ebp], edx
	mov	eax, DWORD PTR _i$[ebp]
	add	eax, 1
	mov	DWORD PTR _i$[ebp], eax

; 225  : 					table[j++][k] = i++;

	mov	eax, DWORD PTR _j$[ebp]
	mov	ecx, DWORD PTR _table$[ebp]
	mov	edx, DWORD PTR [ecx+eax*4]
	mov	eax, DWORD PTR _k$[ebp]
	mov	ecx, DWORD PTR _i$[ebp]
	mov	DWORD PTR [edx+eax*4], ecx
	mov	edx, DWORD PTR _j$[ebp]
	add	edx, 1
	mov	DWORD PTR _j$[ebp], edx
	mov	eax, DWORD PTR _i$[ebp]
	add	eax, 1
	mov	DWORD PTR _i$[ebp], eax

; 226  : 					table[j][k++] = i++;

	mov	eax, DWORD PTR _j$[ebp]
	mov	ecx, DWORD PTR _table$[ebp]
	mov	edx, DWORD PTR [ecx+eax*4]
	mov	eax, DWORD PTR _k$[ebp]
	mov	ecx, DWORD PTR _i$[ebp]
	mov	DWORD PTR [edx+eax*4], ecx
	mov	edx, DWORD PTR _k$[ebp]
	add	edx, 1
	mov	DWORD PTR _k$[ebp], edx
	mov	eax, DWORD PTR _i$[ebp]
	add	eax, 1
	mov	DWORD PTR _i$[ebp], eax

; 227  : 					table[j][k++] = i++;

	mov	eax, DWORD PTR _j$[ebp]
	mov	ecx, DWORD PTR _table$[ebp]
	mov	edx, DWORD PTR [ecx+eax*4]
	mov	eax, DWORD PTR _k$[ebp]
	mov	ecx, DWORD PTR _i$[ebp]
	mov	DWORD PTR [edx+eax*4], ecx
	mov	edx, DWORD PTR _k$[ebp]
	add	edx, 1
	mov	DWORD PTR _k$[ebp], edx
	mov	eax, DWORD PTR _i$[ebp]
	add	eax, 1
	mov	DWORD PTR _i$[ebp], eax

; 228  : 					table[j][k] = i++;

	mov	eax, DWORD PTR _j$[ebp]
	mov	ecx, DWORD PTR _table$[ebp]
	mov	edx, DWORD PTR [ecx+eax*4]
	mov	eax, DWORD PTR _k$[ebp]
	mov	ecx, DWORD PTR _i$[ebp]
	mov	DWORD PTR [edx+eax*4], ecx
	mov	edx, DWORD PTR _i$[ebp]
	add	edx, 1
	mov	DWORD PTR _i$[ebp], edx

; 229  : 
; 230  : 				}

	jmp	$LN32@cub_9
$LN31@cub_9:

; 231  : 				else if (J != n / 3 - 1 && J != n / 3 - 1 && tab[J + 1][K] - tab[J][K] == 1) {

	mov	eax, DWORD PTR _n$[ebp]
	cdq
	mov	ecx, 3
	idiv	ecx
	sub	eax, 1
	cmp	DWORD PTR _J$[ebp], eax
	je	$LN32@cub_9
	mov	eax, DWORD PTR _n$[ebp]
	cdq
	mov	ecx, 3
	idiv	ecx
	sub	eax, 1
	cmp	DWORD PTR _J$[ebp], eax
	je	$LN32@cub_9
	mov	eax, DWORD PTR _J$[ebp]
	mov	ecx, DWORD PTR _tab$[ebp]
	mov	edx, DWORD PTR [ecx+eax*4+4]
	mov	eax, DWORD PTR _J$[ebp]
	mov	ecx, DWORD PTR _tab$[ebp]
	mov	eax, DWORD PTR [ecx+eax*4]
	mov	ecx, DWORD PTR _K$[ebp]
	mov	esi, DWORD PTR _K$[ebp]
	mov	edx, DWORD PTR [edx+ecx*4]
	sub	edx, DWORD PTR [eax+esi*4]
	cmp	edx, 1
	jne	$LN32@cub_9

; 232  : 					j++;

	mov	eax, DWORD PTR _j$[ebp]
	add	eax, 1
	mov	DWORD PTR _j$[ebp], eax

; 233  : 					J++;

	mov	eax, DWORD PTR _J$[ebp]
	add	eax, 1
	mov	DWORD PTR _J$[ebp], eax

; 234  : 					////c_2(table, &i, &j, &k);
; 235  : 
; 236  : 					table[j++][k] = i++;

	mov	eax, DWORD PTR _j$[ebp]
	mov	ecx, DWORD PTR _table$[ebp]
	mov	edx, DWORD PTR [ecx+eax*4]
	mov	eax, DWORD PTR _k$[ebp]
	mov	ecx, DWORD PTR _i$[ebp]
	mov	DWORD PTR [edx+eax*4], ecx
	mov	edx, DWORD PTR _j$[ebp]
	add	edx, 1
	mov	DWORD PTR _j$[ebp], edx
	mov	eax, DWORD PTR _i$[ebp]
	add	eax, 1
	mov	DWORD PTR _i$[ebp], eax

; 237  : 					table[j][k--] = i++;

	mov	eax, DWORD PTR _j$[ebp]
	mov	ecx, DWORD PTR _table$[ebp]
	mov	edx, DWORD PTR [ecx+eax*4]
	mov	eax, DWORD PTR _k$[ebp]
	mov	ecx, DWORD PTR _i$[ebp]
	mov	DWORD PTR [edx+eax*4], ecx
	mov	edx, DWORD PTR _k$[ebp]
	sub	edx, 1
	mov	DWORD PTR _k$[ebp], edx
	mov	eax, DWORD PTR _i$[ebp]
	add	eax, 1
	mov	DWORD PTR _i$[ebp], eax

; 238  : 					table[j--][k] = i++;

	mov	eax, DWORD PTR _j$[ebp]
	mov	ecx, DWORD PTR _table$[ebp]
	mov	edx, DWORD PTR [ecx+eax*4]
	mov	eax, DWORD PTR _k$[ebp]
	mov	ecx, DWORD PTR _i$[ebp]
	mov	DWORD PTR [edx+eax*4], ecx
	mov	edx, DWORD PTR _j$[ebp]
	sub	edx, 1
	mov	DWORD PTR _j$[ebp], edx
	mov	eax, DWORD PTR _i$[ebp]
	add	eax, 1
	mov	DWORD PTR _i$[ebp], eax

; 239  : 					table[j][k--] = i++;

	mov	eax, DWORD PTR _j$[ebp]
	mov	ecx, DWORD PTR _table$[ebp]
	mov	edx, DWORD PTR [ecx+eax*4]
	mov	eax, DWORD PTR _k$[ebp]
	mov	ecx, DWORD PTR _i$[ebp]
	mov	DWORD PTR [edx+eax*4], ecx
	mov	edx, DWORD PTR _k$[ebp]
	sub	edx, 1
	mov	DWORD PTR _k$[ebp], edx
	mov	eax, DWORD PTR _i$[ebp]
	add	eax, 1
	mov	DWORD PTR _i$[ebp], eax

; 240  : 					table[j++][k] = i++;

	mov	eax, DWORD PTR _j$[ebp]
	mov	ecx, DWORD PTR _table$[ebp]
	mov	edx, DWORD PTR [ecx+eax*4]
	mov	eax, DWORD PTR _k$[ebp]
	mov	ecx, DWORD PTR _i$[ebp]
	mov	DWORD PTR [edx+eax*4], ecx
	mov	edx, DWORD PTR _j$[ebp]
	add	edx, 1
	mov	DWORD PTR _j$[ebp], edx
	mov	eax, DWORD PTR _i$[ebp]
	add	eax, 1
	mov	DWORD PTR _i$[ebp], eax

; 241  : 					table[j++][k] = i++;

	mov	eax, DWORD PTR _j$[ebp]
	mov	ecx, DWORD PTR _table$[ebp]
	mov	edx, DWORD PTR [ecx+eax*4]
	mov	eax, DWORD PTR _k$[ebp]
	mov	ecx, DWORD PTR _i$[ebp]
	mov	DWORD PTR [edx+eax*4], ecx
	mov	edx, DWORD PTR _j$[ebp]
	add	edx, 1
	mov	DWORD PTR _j$[ebp], edx
	mov	eax, DWORD PTR _i$[ebp]
	add	eax, 1
	mov	DWORD PTR _i$[ebp], eax

; 242  : 					table[j][k++] = i++;

	mov	eax, DWORD PTR _j$[ebp]
	mov	ecx, DWORD PTR _table$[ebp]
	mov	edx, DWORD PTR [ecx+eax*4]
	mov	eax, DWORD PTR _k$[ebp]
	mov	ecx, DWORD PTR _i$[ebp]
	mov	DWORD PTR [edx+eax*4], ecx
	mov	edx, DWORD PTR _k$[ebp]
	add	edx, 1
	mov	DWORD PTR _k$[ebp], edx
	mov	eax, DWORD PTR _i$[ebp]
	add	eax, 1
	mov	DWORD PTR _i$[ebp], eax

; 243  : 					table[j][k++] = i++;

	mov	eax, DWORD PTR _j$[ebp]
	mov	ecx, DWORD PTR _table$[ebp]
	mov	edx, DWORD PTR [ecx+eax*4]
	mov	eax, DWORD PTR _k$[ebp]
	mov	ecx, DWORD PTR _i$[ebp]
	mov	DWORD PTR [edx+eax*4], ecx
	mov	edx, DWORD PTR _k$[ebp]
	add	edx, 1
	mov	DWORD PTR _k$[ebp], edx
	mov	eax, DWORD PTR _i$[ebp]
	add	eax, 1
	mov	DWORD PTR _i$[ebp], eax

; 244  : 					table[j][k] = i++;

	mov	eax, DWORD PTR _j$[ebp]
	mov	ecx, DWORD PTR _table$[ebp]
	mov	edx, DWORD PTR [ecx+eax*4]
	mov	eax, DWORD PTR _k$[ebp]
	mov	ecx, DWORD PTR _i$[ebp]
	mov	DWORD PTR [edx+eax*4], ecx
	mov	edx, DWORD PTR _i$[ebp]
	add	edx, 1
	mov	DWORD PTR _i$[ebp], edx
$LN32@cub_9:

; 245  : 
; 246  : 				}
; 247  : 				*sum -= 9;

	mov	eax, DWORD PTR _sum$[ebp]
	mov	ecx, DWORD PTR [eax]
	sub	ecx, 9
	mov	edx, DWORD PTR _sum$[ebp]
	mov	DWORD PTR [edx], ecx

; 248  : 				f = flag;

	mov	eax, DWORD PTR _flag$[ebp]
	mov	DWORD PTR _f$[ebp], eax

; 249  : 				int result = cub_9(table, 39, i, j, k, n, sum, tab, I, J, K);

	mov	eax, DWORD PTR _K$[ebp]
	push	eax
	mov	ecx, DWORD PTR _J$[ebp]
	push	ecx
	mov	edx, DWORD PTR _I$[ebp]
	push	edx
	mov	eax, DWORD PTR _tab$[ebp]
	push	eax
	mov	ecx, DWORD PTR _sum$[ebp]
	push	ecx
	mov	edx, DWORD PTR _n$[ebp]
	push	edx
	mov	eax, DWORD PTR _k$[ebp]
	push	eax
	mov	ecx, DWORD PTR _j$[ebp]
	push	ecx
	mov	edx, DWORD PTR _i$[ebp]
	push	edx
	push	39					; 00000027H
	mov	eax, DWORD PTR _table$[ebp]
	push	eax
	call	?cub_9@@YAHPAPAHHHHHHPAH0HHH@Z		; cub_9
	add	esp, 44					; 0000002cH
	mov	DWORD PTR _result$60[ebp], eax

; 250  : 				if (result == -1 && table[0][n - 1] != n*n) {

	cmp	DWORD PTR _result$60[ebp], -1
	jne	$LN28@cub_9
	mov	eax, 4
	imul	ecx, eax, 0
	mov	edx, DWORD PTR _table$[ebp]
	mov	eax, DWORD PTR [edx+ecx]
	mov	ecx, DWORD PTR _n$[ebp]
	imul	ecx, DWORD PTR _n$[ebp]
	mov	edx, DWORD PTR _n$[ebp]
	cmp	DWORD PTR [eax+edx*4-4], ecx
	je	$LN28@cub_9

; 251  : 					////c_22(table, &i, &j, &k);
; 252  : 
; 253  : 					i = i - 9;

	mov	eax, DWORD PTR _i$[ebp]
	sub	eax, 9
	mov	DWORD PTR _i$[ebp], eax

; 254  : 
; 255  : 					table[j][k--] = 0;

	mov	eax, DWORD PTR _j$[ebp]
	mov	ecx, DWORD PTR _table$[ebp]
	mov	edx, DWORD PTR [ecx+eax*4]
	mov	eax, DWORD PTR _k$[ebp]
	mov	DWORD PTR [edx+eax*4], 0
	mov	ecx, DWORD PTR _k$[ebp]
	sub	ecx, 1
	mov	DWORD PTR _k$[ebp], ecx

; 256  : 					table[j][k--] = 0;

	mov	eax, DWORD PTR _j$[ebp]
	mov	ecx, DWORD PTR _table$[ebp]
	mov	edx, DWORD PTR [ecx+eax*4]
	mov	eax, DWORD PTR _k$[ebp]
	mov	DWORD PTR [edx+eax*4], 0
	mov	ecx, DWORD PTR _k$[ebp]
	sub	ecx, 1
	mov	DWORD PTR _k$[ebp], ecx

; 257  : 					table[j--][k] = 0;

	mov	eax, DWORD PTR _j$[ebp]
	mov	ecx, DWORD PTR _table$[ebp]
	mov	edx, DWORD PTR [ecx+eax*4]
	mov	eax, DWORD PTR _k$[ebp]
	mov	DWORD PTR [edx+eax*4], 0
	mov	ecx, DWORD PTR _j$[ebp]
	sub	ecx, 1
	mov	DWORD PTR _j$[ebp], ecx

; 258  : 					table[j--][k] = 0;

	mov	eax, DWORD PTR _j$[ebp]
	mov	ecx, DWORD PTR _table$[ebp]
	mov	edx, DWORD PTR [ecx+eax*4]
	mov	eax, DWORD PTR _k$[ebp]
	mov	DWORD PTR [edx+eax*4], 0
	mov	ecx, DWORD PTR _j$[ebp]
	sub	ecx, 1
	mov	DWORD PTR _j$[ebp], ecx

; 259  : 					table[j][k++] = 0;

	mov	eax, DWORD PTR _j$[ebp]
	mov	ecx, DWORD PTR _table$[ebp]
	mov	edx, DWORD PTR [ecx+eax*4]
	mov	eax, DWORD PTR _k$[ebp]
	mov	DWORD PTR [edx+eax*4], 0
	mov	ecx, DWORD PTR _k$[ebp]
	add	ecx, 1
	mov	DWORD PTR _k$[ebp], ecx

; 260  : 					table[j++][k] = 0;

	mov	eax, DWORD PTR _j$[ebp]
	mov	ecx, DWORD PTR _table$[ebp]
	mov	edx, DWORD PTR [ecx+eax*4]
	mov	eax, DWORD PTR _k$[ebp]
	mov	DWORD PTR [edx+eax*4], 0
	mov	ecx, DWORD PTR _j$[ebp]
	add	ecx, 1
	mov	DWORD PTR _j$[ebp], ecx

; 261  : 					table[j][k++] = 0;

	mov	eax, DWORD PTR _j$[ebp]
	mov	ecx, DWORD PTR _table$[ebp]
	mov	edx, DWORD PTR [ecx+eax*4]
	mov	eax, DWORD PTR _k$[ebp]
	mov	DWORD PTR [edx+eax*4], 0
	mov	ecx, DWORD PTR _k$[ebp]
	add	ecx, 1
	mov	DWORD PTR _k$[ebp], ecx

; 262  : 					table[j--][k] = 0;

	mov	eax, DWORD PTR _j$[ebp]
	mov	ecx, DWORD PTR _table$[ebp]
	mov	edx, DWORD PTR [ecx+eax*4]
	mov	eax, DWORD PTR _k$[ebp]
	mov	DWORD PTR [edx+eax*4], 0
	mov	ecx, DWORD PTR _j$[ebp]
	sub	ecx, 1
	mov	DWORD PTR _j$[ebp], ecx

; 263  : 
; 264  : 
; 265  : 					table[j][k] = 0;

	mov	eax, DWORD PTR _j$[ebp]
	mov	ecx, DWORD PTR _table$[ebp]
	mov	edx, DWORD PTR [ecx+eax*4]
	mov	eax, DWORD PTR _k$[ebp]
	mov	DWORD PTR [edx+eax*4], 0

; 266  : 
; 267  : 					*sum += 9;

	mov	eax, DWORD PTR _sum$[ebp]
	mov	ecx, DWORD PTR [eax]
	add	ecx, 9
	mov	edx, DWORD PTR _sum$[ebp]
	mov	DWORD PTR [edx], ecx

; 268  : 					if (f == 31) {

	cmp	DWORD PTR _f$[ebp], 31			; 0000001fH
	jne	SHORT $LN35@cub_9

; 269  : 						K++;

	mov	eax, DWORD PTR _K$[ebp]
	add	eax, 1
	mov	DWORD PTR _K$[ebp], eax

; 270  : 						k++;

	mov	eax, DWORD PTR _k$[ebp]
	add	eax, 1
	mov	DWORD PTR _k$[ebp], eax

; 271  : 					}

	jmp	SHORT $LN28@cub_9
$LN35@cub_9:

; 272  : 					else {
; 273  : 						J--;

	mov	eax, DWORD PTR _J$[ebp]
	sub	eax, 1
	mov	DWORD PTR _J$[ebp], eax

; 274  : 						j--;

	mov	eax, DWORD PTR _j$[ebp]
	sub	eax, 1
	mov	DWORD PTR _j$[ebp], eax
$LN28@cub_9:

; 275  : 					}
; 276  : 				}
; 277  : 			}
; 278  : 			if (table[0][n - 1] != n * n && flag == 39 && J != n / 3 - 1 && tab[J + 1][K] - tab[J][K] == 1) {

	mov	eax, 4
	imul	ecx, eax, 0
	mov	edx, DWORD PTR _table$[ebp]
	mov	eax, DWORD PTR [edx+ecx]
	mov	ecx, DWORD PTR _n$[ebp]
	imul	ecx, DWORD PTR _n$[ebp]
	mov	edx, DWORD PTR _n$[ebp]
	cmp	DWORD PTR [eax+edx*4-4], ecx
	je	$LN37@cub_9
	cmp	DWORD PTR _flag$[ebp], 39		; 00000027H
	jne	$LN37@cub_9
	mov	eax, DWORD PTR _n$[ebp]
	cdq
	mov	ecx, 3
	idiv	ecx
	sub	eax, 1
	cmp	DWORD PTR _J$[ebp], eax
	je	$LN37@cub_9
	mov	eax, DWORD PTR _J$[ebp]
	mov	ecx, DWORD PTR _tab$[ebp]
	mov	edx, DWORD PTR [ecx+eax*4+4]
	mov	eax, DWORD PTR _J$[ebp]
	mov	ecx, DWORD PTR _tab$[ebp]
	mov	eax, DWORD PTR [ecx+eax*4]
	mov	ecx, DWORD PTR _K$[ebp]
	mov	esi, DWORD PTR _K$[ebp]
	mov	edx, DWORD PTR [edx+ecx*4]
	sub	edx, DWORD PTR [eax+esi*4]
	cmp	edx, 1
	jne	$LN37@cub_9

; 279  : 				j++;

	mov	eax, DWORD PTR _j$[ebp]
	add	eax, 1
	mov	DWORD PTR _j$[ebp], eax

; 280  : 				J++;

	mov	eax, DWORD PTR _J$[ebp]
	add	eax, 1
	mov	DWORD PTR _J$[ebp], eax

; 281  : 				////c_2(table, &i, &j, &k);
; 282  : 
; 283  : 				table[j++][k] = i++;

	mov	eax, DWORD PTR _j$[ebp]
	mov	ecx, DWORD PTR _table$[ebp]
	mov	edx, DWORD PTR [ecx+eax*4]
	mov	eax, DWORD PTR _k$[ebp]
	mov	ecx, DWORD PTR _i$[ebp]
	mov	DWORD PTR [edx+eax*4], ecx
	mov	edx, DWORD PTR _j$[ebp]
	add	edx, 1
	mov	DWORD PTR _j$[ebp], edx
	mov	eax, DWORD PTR _i$[ebp]
	add	eax, 1
	mov	DWORD PTR _i$[ebp], eax

; 284  : 				table[j][k--] = i++;

	mov	eax, DWORD PTR _j$[ebp]
	mov	ecx, DWORD PTR _table$[ebp]
	mov	edx, DWORD PTR [ecx+eax*4]
	mov	eax, DWORD PTR _k$[ebp]
	mov	ecx, DWORD PTR _i$[ebp]
	mov	DWORD PTR [edx+eax*4], ecx
	mov	edx, DWORD PTR _k$[ebp]
	sub	edx, 1
	mov	DWORD PTR _k$[ebp], edx
	mov	eax, DWORD PTR _i$[ebp]
	add	eax, 1
	mov	DWORD PTR _i$[ebp], eax

; 285  : 				table[j--][k] = i++;

	mov	eax, DWORD PTR _j$[ebp]
	mov	ecx, DWORD PTR _table$[ebp]
	mov	edx, DWORD PTR [ecx+eax*4]
	mov	eax, DWORD PTR _k$[ebp]
	mov	ecx, DWORD PTR _i$[ebp]
	mov	DWORD PTR [edx+eax*4], ecx
	mov	edx, DWORD PTR _j$[ebp]
	sub	edx, 1
	mov	DWORD PTR _j$[ebp], edx
	mov	eax, DWORD PTR _i$[ebp]
	add	eax, 1
	mov	DWORD PTR _i$[ebp], eax

; 286  : 				table[j][k--] = i++;

	mov	eax, DWORD PTR _j$[ebp]
	mov	ecx, DWORD PTR _table$[ebp]
	mov	edx, DWORD PTR [ecx+eax*4]
	mov	eax, DWORD PTR _k$[ebp]
	mov	ecx, DWORD PTR _i$[ebp]
	mov	DWORD PTR [edx+eax*4], ecx
	mov	edx, DWORD PTR _k$[ebp]
	sub	edx, 1
	mov	DWORD PTR _k$[ebp], edx
	mov	eax, DWORD PTR _i$[ebp]
	add	eax, 1
	mov	DWORD PTR _i$[ebp], eax

; 287  : 				table[j++][k] = i++;

	mov	eax, DWORD PTR _j$[ebp]
	mov	ecx, DWORD PTR _table$[ebp]
	mov	edx, DWORD PTR [ecx+eax*4]
	mov	eax, DWORD PTR _k$[ebp]
	mov	ecx, DWORD PTR _i$[ebp]
	mov	DWORD PTR [edx+eax*4], ecx
	mov	edx, DWORD PTR _j$[ebp]
	add	edx, 1
	mov	DWORD PTR _j$[ebp], edx
	mov	eax, DWORD PTR _i$[ebp]
	add	eax, 1
	mov	DWORD PTR _i$[ebp], eax

; 288  : 				table[j++][k] = i++;

	mov	eax, DWORD PTR _j$[ebp]
	mov	ecx, DWORD PTR _table$[ebp]
	mov	edx, DWORD PTR [ecx+eax*4]
	mov	eax, DWORD PTR _k$[ebp]
	mov	ecx, DWORD PTR _i$[ebp]
	mov	DWORD PTR [edx+eax*4], ecx
	mov	edx, DWORD PTR _j$[ebp]
	add	edx, 1
	mov	DWORD PTR _j$[ebp], edx
	mov	eax, DWORD PTR _i$[ebp]
	add	eax, 1
	mov	DWORD PTR _i$[ebp], eax

; 289  : 				table[j][k++] = i++;

	mov	eax, DWORD PTR _j$[ebp]
	mov	ecx, DWORD PTR _table$[ebp]
	mov	edx, DWORD PTR [ecx+eax*4]
	mov	eax, DWORD PTR _k$[ebp]
	mov	ecx, DWORD PTR _i$[ebp]
	mov	DWORD PTR [edx+eax*4], ecx
	mov	edx, DWORD PTR _k$[ebp]
	add	edx, 1
	mov	DWORD PTR _k$[ebp], edx
	mov	eax, DWORD PTR _i$[ebp]
	add	eax, 1
	mov	DWORD PTR _i$[ebp], eax

; 290  : 				table[j][k++] = i++;

	mov	eax, DWORD PTR _j$[ebp]
	mov	ecx, DWORD PTR _table$[ebp]
	mov	edx, DWORD PTR [ecx+eax*4]
	mov	eax, DWORD PTR _k$[ebp]
	mov	ecx, DWORD PTR _i$[ebp]
	mov	DWORD PTR [edx+eax*4], ecx
	mov	edx, DWORD PTR _k$[ebp]
	add	edx, 1
	mov	DWORD PTR _k$[ebp], edx
	mov	eax, DWORD PTR _i$[ebp]
	add	eax, 1
	mov	DWORD PTR _i$[ebp], eax

; 291  : 				table[j][k] = i++;

	mov	eax, DWORD PTR _j$[ebp]
	mov	ecx, DWORD PTR _table$[ebp]
	mov	edx, DWORD PTR [ecx+eax*4]
	mov	eax, DWORD PTR _k$[ebp]
	mov	ecx, DWORD PTR _i$[ebp]
	mov	DWORD PTR [edx+eax*4], ecx
	mov	edx, DWORD PTR _i$[ebp]
	add	edx, 1
	mov	DWORD PTR _i$[ebp], edx

; 292  : 
; 293  : 				*sum -= 9;

	mov	eax, DWORD PTR _sum$[ebp]
	mov	ecx, DWORD PTR [eax]
	sub	ecx, 9
	mov	edx, DWORD PTR _sum$[ebp]
	mov	DWORD PTR [edx], ecx

; 294  : 				int result = cub_9(table, 49, i, j, k, n, sum, tab, I, J, K);

	mov	eax, DWORD PTR _K$[ebp]
	push	eax
	mov	ecx, DWORD PTR _J$[ebp]
	push	ecx
	mov	edx, DWORD PTR _I$[ebp]
	push	edx
	mov	eax, DWORD PTR _tab$[ebp]
	push	eax
	mov	ecx, DWORD PTR _sum$[ebp]
	push	ecx
	mov	edx, DWORD PTR _n$[ebp]
	push	edx
	mov	eax, DWORD PTR _k$[ebp]
	push	eax
	mov	ecx, DWORD PTR _j$[ebp]
	push	ecx
	mov	edx, DWORD PTR _i$[ebp]
	push	edx
	push	49					; 00000031H
	mov	eax, DWORD PTR _table$[ebp]
	push	eax
	call	?cub_9@@YAHPAPAHHHHHHPAH0HHH@Z		; cub_9
	add	esp, 44					; 0000002cH
	mov	DWORD PTR _result$59[ebp], eax

; 295  : 				if (result == -1 && table[0][n - 1] != n*n) {

	cmp	DWORD PTR _result$59[ebp], -1
	jne	$LN37@cub_9
	mov	eax, 4
	imul	ecx, eax, 0
	mov	edx, DWORD PTR _table$[ebp]
	mov	eax, DWORD PTR [edx+ecx]
	mov	ecx, DWORD PTR _n$[ebp]
	imul	ecx, DWORD PTR _n$[ebp]
	mov	edx, DWORD PTR _n$[ebp]
	cmp	DWORD PTR [eax+edx*4-4], ecx
	je	$LN37@cub_9

; 296  : 					////c_22(table, &i, &j, &k);
; 297  : 
; 298  : 					i = i - 9;

	mov	eax, DWORD PTR _i$[ebp]
	sub	eax, 9
	mov	DWORD PTR _i$[ebp], eax

; 299  : 
; 300  : 					table[j][k--] = 0;

	mov	eax, DWORD PTR _j$[ebp]
	mov	ecx, DWORD PTR _table$[ebp]
	mov	edx, DWORD PTR [ecx+eax*4]
	mov	eax, DWORD PTR _k$[ebp]
	mov	DWORD PTR [edx+eax*4], 0
	mov	ecx, DWORD PTR _k$[ebp]
	sub	ecx, 1
	mov	DWORD PTR _k$[ebp], ecx

; 301  : 					table[j][k--] = 0;

	mov	eax, DWORD PTR _j$[ebp]
	mov	ecx, DWORD PTR _table$[ebp]
	mov	edx, DWORD PTR [ecx+eax*4]
	mov	eax, DWORD PTR _k$[ebp]
	mov	DWORD PTR [edx+eax*4], 0
	mov	ecx, DWORD PTR _k$[ebp]
	sub	ecx, 1
	mov	DWORD PTR _k$[ebp], ecx

; 302  : 					table[j--][k] = 0;

	mov	eax, DWORD PTR _j$[ebp]
	mov	ecx, DWORD PTR _table$[ebp]
	mov	edx, DWORD PTR [ecx+eax*4]
	mov	eax, DWORD PTR _k$[ebp]
	mov	DWORD PTR [edx+eax*4], 0
	mov	ecx, DWORD PTR _j$[ebp]
	sub	ecx, 1
	mov	DWORD PTR _j$[ebp], ecx

; 303  : 					table[j--][k] = 0;

	mov	eax, DWORD PTR _j$[ebp]
	mov	ecx, DWORD PTR _table$[ebp]
	mov	edx, DWORD PTR [ecx+eax*4]
	mov	eax, DWORD PTR _k$[ebp]
	mov	DWORD PTR [edx+eax*4], 0
	mov	ecx, DWORD PTR _j$[ebp]
	sub	ecx, 1
	mov	DWORD PTR _j$[ebp], ecx

; 304  : 					table[j][k++] = 0;

	mov	eax, DWORD PTR _j$[ebp]
	mov	ecx, DWORD PTR _table$[ebp]
	mov	edx, DWORD PTR [ecx+eax*4]
	mov	eax, DWORD PTR _k$[ebp]
	mov	DWORD PTR [edx+eax*4], 0
	mov	ecx, DWORD PTR _k$[ebp]
	add	ecx, 1
	mov	DWORD PTR _k$[ebp], ecx

; 305  : 					table[j++][k] = 0;

	mov	eax, DWORD PTR _j$[ebp]
	mov	ecx, DWORD PTR _table$[ebp]
	mov	edx, DWORD PTR [ecx+eax*4]
	mov	eax, DWORD PTR _k$[ebp]
	mov	DWORD PTR [edx+eax*4], 0
	mov	ecx, DWORD PTR _j$[ebp]
	add	ecx, 1
	mov	DWORD PTR _j$[ebp], ecx

; 306  : 					table[j][k++] = 0;

	mov	eax, DWORD PTR _j$[ebp]
	mov	ecx, DWORD PTR _table$[ebp]
	mov	edx, DWORD PTR [ecx+eax*4]
	mov	eax, DWORD PTR _k$[ebp]
	mov	DWORD PTR [edx+eax*4], 0
	mov	ecx, DWORD PTR _k$[ebp]
	add	ecx, 1
	mov	DWORD PTR _k$[ebp], ecx

; 307  : 					table[j--][k] = 0;

	mov	eax, DWORD PTR _j$[ebp]
	mov	ecx, DWORD PTR _table$[ebp]
	mov	edx, DWORD PTR [ecx+eax*4]
	mov	eax, DWORD PTR _k$[ebp]
	mov	DWORD PTR [edx+eax*4], 0
	mov	ecx, DWORD PTR _j$[ebp]
	sub	ecx, 1
	mov	DWORD PTR _j$[ebp], ecx

; 308  : 
; 309  : 
; 310  : 					table[j][k] = 0;

	mov	eax, DWORD PTR _j$[ebp]
	mov	ecx, DWORD PTR _table$[ebp]
	mov	edx, DWORD PTR [ecx+eax*4]
	mov	eax, DWORD PTR _k$[ebp]
	mov	DWORD PTR [edx+eax*4], 0

; 311  : 
; 312  : 					*sum += 9;

	mov	eax, DWORD PTR _sum$[ebp]
	mov	ecx, DWORD PTR [eax]
	add	ecx, 9
	mov	edx, DWORD PTR _sum$[ebp]
	mov	DWORD PTR [edx], ecx

; 313  : 					j--;

	mov	eax, DWORD PTR _j$[ebp]
	sub	eax, 1
	mov	DWORD PTR _j$[ebp], eax

; 314  : 					J--;

	mov	eax, DWORD PTR _J$[ebp]
	sub	eax, 1
	mov	DWORD PTR _J$[ebp], eax
$LN37@cub_9:

; 315  : 				}
; 316  : 			}
; 317  : 			if (table[0][n - 1] != n * n && flag == 29 || flag == 31) {

	mov	eax, 4
	imul	ecx, eax, 0
	mov	edx, DWORD PTR _table$[ebp]
	mov	eax, DWORD PTR [edx+ecx]
	mov	ecx, DWORD PTR _n$[ebp]
	imul	ecx, DWORD PTR _n$[ebp]
	mov	edx, DWORD PTR _n$[ebp]
	cmp	DWORD PTR [eax+edx*4-4], ecx
	je	SHORT $LN41@cub_9
	cmp	DWORD PTR _flag$[ebp], 29		; 0000001dH
	je	SHORT $LN40@cub_9
$LN41@cub_9:
	cmp	DWORD PTR _flag$[ebp], 31		; 0000001fH
	jne	$LN39@cub_9
$LN40@cub_9:

; 318  : 				if (table[0][n - 1] != n * n && flag == 31 && K != 0 && tab[J][K - 1] - tab[J][K] == 1) {

	mov	eax, 4
	imul	ecx, eax, 0
	mov	edx, DWORD PTR _table$[ebp]
	mov	eax, DWORD PTR [edx+ecx]
	mov	ecx, DWORD PTR _n$[ebp]
	imul	ecx, DWORD PTR _n$[ebp]
	mov	edx, DWORD PTR _n$[ebp]
	cmp	DWORD PTR [eax+edx*4-4], ecx
	je	$LN42@cub_9
	cmp	DWORD PTR _flag$[ebp], 31		; 0000001fH
	jne	$LN42@cub_9
	cmp	DWORD PTR _K$[ebp], 0
	je	$LN42@cub_9
	mov	eax, DWORD PTR _J$[ebp]
	mov	ecx, DWORD PTR _tab$[ebp]
	mov	edx, DWORD PTR [ecx+eax*4]
	mov	eax, DWORD PTR _J$[ebp]
	mov	ecx, DWORD PTR _tab$[ebp]
	mov	eax, DWORD PTR [ecx+eax*4]
	mov	ecx, DWORD PTR _K$[ebp]
	mov	esi, DWORD PTR _K$[ebp]
	mov	edx, DWORD PTR [edx+ecx*4-4]
	sub	edx, DWORD PTR [eax+esi*4]
	cmp	edx, 1
	jne	$LN42@cub_9

; 319  : 					k--;

	mov	eax, DWORD PTR _k$[ebp]
	sub	eax, 1
	mov	DWORD PTR _k$[ebp], eax

; 320  : 					K--;

	mov	eax, DWORD PTR _K$[ebp]
	sub	eax, 1
	mov	DWORD PTR _K$[ebp], eax

; 321  : 					////c_8(table, &i, &j, &k);
; 322  : 
; 323  : 					table[j][k--] = i++;

	mov	eax, DWORD PTR _j$[ebp]
	mov	ecx, DWORD PTR _table$[ebp]
	mov	edx, DWORD PTR [ecx+eax*4]
	mov	eax, DWORD PTR _k$[ebp]
	mov	ecx, DWORD PTR _i$[ebp]
	mov	DWORD PTR [edx+eax*4], ecx
	mov	edx, DWORD PTR _k$[ebp]
	sub	edx, 1
	mov	DWORD PTR _k$[ebp], edx
	mov	eax, DWORD PTR _i$[ebp]
	add	eax, 1
	mov	DWORD PTR _i$[ebp], eax

; 324  : 					table[j++][k] = i++;

	mov	eax, DWORD PTR _j$[ebp]
	mov	ecx, DWORD PTR _table$[ebp]
	mov	edx, DWORD PTR [ecx+eax*4]
	mov	eax, DWORD PTR _k$[ebp]
	mov	ecx, DWORD PTR _i$[ebp]
	mov	DWORD PTR [edx+eax*4], ecx
	mov	edx, DWORD PTR _j$[ebp]
	add	edx, 1
	mov	DWORD PTR _j$[ebp], edx
	mov	eax, DWORD PTR _i$[ebp]
	add	eax, 1
	mov	DWORD PTR _i$[ebp], eax

; 325  : 					table[j][k++] = i++;

	mov	eax, DWORD PTR _j$[ebp]
	mov	ecx, DWORD PTR _table$[ebp]
	mov	edx, DWORD PTR [ecx+eax*4]
	mov	eax, DWORD PTR _k$[ebp]
	mov	ecx, DWORD PTR _i$[ebp]
	mov	DWORD PTR [edx+eax*4], ecx
	mov	edx, DWORD PTR _k$[ebp]
	add	edx, 1
	mov	DWORD PTR _k$[ebp], edx
	mov	eax, DWORD PTR _i$[ebp]
	add	eax, 1
	mov	DWORD PTR _i$[ebp], eax

; 326  : 					table[j++][k] = i++;

	mov	eax, DWORD PTR _j$[ebp]
	mov	ecx, DWORD PTR _table$[ebp]
	mov	edx, DWORD PTR [ecx+eax*4]
	mov	eax, DWORD PTR _k$[ebp]
	mov	ecx, DWORD PTR _i$[ebp]
	mov	DWORD PTR [edx+eax*4], ecx
	mov	edx, DWORD PTR _j$[ebp]
	add	edx, 1
	mov	DWORD PTR _j$[ebp], edx
	mov	eax, DWORD PTR _i$[ebp]
	add	eax, 1
	mov	DWORD PTR _i$[ebp], eax

; 327  : 					table[j][k--] = i++;

	mov	eax, DWORD PTR _j$[ebp]
	mov	ecx, DWORD PTR _table$[ebp]
	mov	edx, DWORD PTR [ecx+eax*4]
	mov	eax, DWORD PTR _k$[ebp]
	mov	ecx, DWORD PTR _i$[ebp]
	mov	DWORD PTR [edx+eax*4], ecx
	mov	edx, DWORD PTR _k$[ebp]
	sub	edx, 1
	mov	DWORD PTR _k$[ebp], edx
	mov	eax, DWORD PTR _i$[ebp]
	add	eax, 1
	mov	DWORD PTR _i$[ebp], eax

; 328  : 					table[j][k--] = i++;

	mov	eax, DWORD PTR _j$[ebp]
	mov	ecx, DWORD PTR _table$[ebp]
	mov	edx, DWORD PTR [ecx+eax*4]
	mov	eax, DWORD PTR _k$[ebp]
	mov	ecx, DWORD PTR _i$[ebp]
	mov	DWORD PTR [edx+eax*4], ecx
	mov	edx, DWORD PTR _k$[ebp]
	sub	edx, 1
	mov	DWORD PTR _k$[ebp], edx
	mov	eax, DWORD PTR _i$[ebp]
	add	eax, 1
	mov	DWORD PTR _i$[ebp], eax

; 329  : 					table[j--][k] = i++;

	mov	eax, DWORD PTR _j$[ebp]
	mov	ecx, DWORD PTR _table$[ebp]
	mov	edx, DWORD PTR [ecx+eax*4]
	mov	eax, DWORD PTR _k$[ebp]
	mov	ecx, DWORD PTR _i$[ebp]
	mov	DWORD PTR [edx+eax*4], ecx
	mov	edx, DWORD PTR _j$[ebp]
	sub	edx, 1
	mov	DWORD PTR _j$[ebp], edx
	mov	eax, DWORD PTR _i$[ebp]
	add	eax, 1
	mov	DWORD PTR _i$[ebp], eax

; 330  : 					table[j--][k] = i++;

	mov	eax, DWORD PTR _j$[ebp]
	mov	ecx, DWORD PTR _table$[ebp]
	mov	edx, DWORD PTR [ecx+eax*4]
	mov	eax, DWORD PTR _k$[ebp]
	mov	ecx, DWORD PTR _i$[ebp]
	mov	DWORD PTR [edx+eax*4], ecx
	mov	edx, DWORD PTR _j$[ebp]
	sub	edx, 1
	mov	DWORD PTR _j$[ebp], edx
	mov	eax, DWORD PTR _i$[ebp]
	add	eax, 1
	mov	DWORD PTR _i$[ebp], eax

; 331  : 					table[j][k] = i++;

	mov	eax, DWORD PTR _j$[ebp]
	mov	ecx, DWORD PTR _table$[ebp]
	mov	edx, DWORD PTR [ecx+eax*4]
	mov	eax, DWORD PTR _k$[ebp]
	mov	ecx, DWORD PTR _i$[ebp]
	mov	DWORD PTR [edx+eax*4], ecx
	mov	edx, DWORD PTR _i$[ebp]
	add	edx, 1
	mov	DWORD PTR _i$[ebp], edx

; 332  : 
; 333  : 				}

	jmp	$LN43@cub_9
$LN42@cub_9:

; 334  : 				else if (J != n / 3 - 1 && J != n / 3 - 1 && tab[J + 1][K] - tab[J][K] == 1) {

	mov	eax, DWORD PTR _n$[ebp]
	cdq
	mov	ecx, 3
	idiv	ecx
	sub	eax, 1
	cmp	DWORD PTR _J$[ebp], eax
	je	$LN43@cub_9
	mov	eax, DWORD PTR _n$[ebp]
	cdq
	mov	ecx, 3
	idiv	ecx
	sub	eax, 1
	cmp	DWORD PTR _J$[ebp], eax
	je	$LN43@cub_9
	mov	eax, DWORD PTR _J$[ebp]
	mov	ecx, DWORD PTR _tab$[ebp]
	mov	edx, DWORD PTR [ecx+eax*4+4]
	mov	eax, DWORD PTR _J$[ebp]
	mov	ecx, DWORD PTR _tab$[ebp]
	mov	eax, DWORD PTR [ecx+eax*4]
	mov	ecx, DWORD PTR _K$[ebp]
	mov	esi, DWORD PTR _K$[ebp]
	mov	edx, DWORD PTR [edx+ecx*4]
	sub	edx, DWORD PTR [eax+esi*4]
	cmp	edx, 1
	jne	$LN43@cub_9

; 335  : 					j++;

	mov	eax, DWORD PTR _j$[ebp]
	add	eax, 1
	mov	DWORD PTR _j$[ebp], eax

; 336  : 					J++;

	mov	eax, DWORD PTR _J$[ebp]
	add	eax, 1
	mov	DWORD PTR _J$[ebp], eax

; 337  : 					////c_8(table, &i, &j, &k);
; 338  : 
; 339  : 					table[j][k--] = i++;

	mov	eax, DWORD PTR _j$[ebp]
	mov	ecx, DWORD PTR _table$[ebp]
	mov	edx, DWORD PTR [ecx+eax*4]
	mov	eax, DWORD PTR _k$[ebp]
	mov	ecx, DWORD PTR _i$[ebp]
	mov	DWORD PTR [edx+eax*4], ecx
	mov	edx, DWORD PTR _k$[ebp]
	sub	edx, 1
	mov	DWORD PTR _k$[ebp], edx
	mov	eax, DWORD PTR _i$[ebp]
	add	eax, 1
	mov	DWORD PTR _i$[ebp], eax

; 340  : 					table[j++][k] = i++;

	mov	eax, DWORD PTR _j$[ebp]
	mov	ecx, DWORD PTR _table$[ebp]
	mov	edx, DWORD PTR [ecx+eax*4]
	mov	eax, DWORD PTR _k$[ebp]
	mov	ecx, DWORD PTR _i$[ebp]
	mov	DWORD PTR [edx+eax*4], ecx
	mov	edx, DWORD PTR _j$[ebp]
	add	edx, 1
	mov	DWORD PTR _j$[ebp], edx
	mov	eax, DWORD PTR _i$[ebp]
	add	eax, 1
	mov	DWORD PTR _i$[ebp], eax

; 341  : 					table[j][k++] = i++;

	mov	eax, DWORD PTR _j$[ebp]
	mov	ecx, DWORD PTR _table$[ebp]
	mov	edx, DWORD PTR [ecx+eax*4]
	mov	eax, DWORD PTR _k$[ebp]
	mov	ecx, DWORD PTR _i$[ebp]
	mov	DWORD PTR [edx+eax*4], ecx
	mov	edx, DWORD PTR _k$[ebp]
	add	edx, 1
	mov	DWORD PTR _k$[ebp], edx
	mov	eax, DWORD PTR _i$[ebp]
	add	eax, 1
	mov	DWORD PTR _i$[ebp], eax

; 342  : 					table[j++][k] = i++;

	mov	eax, DWORD PTR _j$[ebp]
	mov	ecx, DWORD PTR _table$[ebp]
	mov	edx, DWORD PTR [ecx+eax*4]
	mov	eax, DWORD PTR _k$[ebp]
	mov	ecx, DWORD PTR _i$[ebp]
	mov	DWORD PTR [edx+eax*4], ecx
	mov	edx, DWORD PTR _j$[ebp]
	add	edx, 1
	mov	DWORD PTR _j$[ebp], edx
	mov	eax, DWORD PTR _i$[ebp]
	add	eax, 1
	mov	DWORD PTR _i$[ebp], eax

; 343  : 					table[j][k--] = i++;

	mov	eax, DWORD PTR _j$[ebp]
	mov	ecx, DWORD PTR _table$[ebp]
	mov	edx, DWORD PTR [ecx+eax*4]
	mov	eax, DWORD PTR _k$[ebp]
	mov	ecx, DWORD PTR _i$[ebp]
	mov	DWORD PTR [edx+eax*4], ecx
	mov	edx, DWORD PTR _k$[ebp]
	sub	edx, 1
	mov	DWORD PTR _k$[ebp], edx
	mov	eax, DWORD PTR _i$[ebp]
	add	eax, 1
	mov	DWORD PTR _i$[ebp], eax

; 344  : 					table[j][k--] = i++;

	mov	eax, DWORD PTR _j$[ebp]
	mov	ecx, DWORD PTR _table$[ebp]
	mov	edx, DWORD PTR [ecx+eax*4]
	mov	eax, DWORD PTR _k$[ebp]
	mov	ecx, DWORD PTR _i$[ebp]
	mov	DWORD PTR [edx+eax*4], ecx
	mov	edx, DWORD PTR _k$[ebp]
	sub	edx, 1
	mov	DWORD PTR _k$[ebp], edx
	mov	eax, DWORD PTR _i$[ebp]
	add	eax, 1
	mov	DWORD PTR _i$[ebp], eax

; 345  : 					table[j--][k] = i++;

	mov	eax, DWORD PTR _j$[ebp]
	mov	ecx, DWORD PTR _table$[ebp]
	mov	edx, DWORD PTR [ecx+eax*4]
	mov	eax, DWORD PTR _k$[ebp]
	mov	ecx, DWORD PTR _i$[ebp]
	mov	DWORD PTR [edx+eax*4], ecx
	mov	edx, DWORD PTR _j$[ebp]
	sub	edx, 1
	mov	DWORD PTR _j$[ebp], edx
	mov	eax, DWORD PTR _i$[ebp]
	add	eax, 1
	mov	DWORD PTR _i$[ebp], eax

; 346  : 					table[j--][k] = i++;

	mov	eax, DWORD PTR _j$[ebp]
	mov	ecx, DWORD PTR _table$[ebp]
	mov	edx, DWORD PTR [ecx+eax*4]
	mov	eax, DWORD PTR _k$[ebp]
	mov	ecx, DWORD PTR _i$[ebp]
	mov	DWORD PTR [edx+eax*4], ecx
	mov	edx, DWORD PTR _j$[ebp]
	sub	edx, 1
	mov	DWORD PTR _j$[ebp], edx
	mov	eax, DWORD PTR _i$[ebp]
	add	eax, 1
	mov	DWORD PTR _i$[ebp], eax

; 347  : 					table[j][k] = i++;

	mov	eax, DWORD PTR _j$[ebp]
	mov	ecx, DWORD PTR _table$[ebp]
	mov	edx, DWORD PTR [ecx+eax*4]
	mov	eax, DWORD PTR _k$[ebp]
	mov	ecx, DWORD PTR _i$[ebp]
	mov	DWORD PTR [edx+eax*4], ecx
	mov	edx, DWORD PTR _i$[ebp]
	add	edx, 1
	mov	DWORD PTR _i$[ebp], edx
$LN43@cub_9:

; 348  : 
; 349  : 				}
; 350  : 				*sum -= 9;

	mov	eax, DWORD PTR _sum$[ebp]
	mov	ecx, DWORD PTR [eax]
	sub	ecx, 9
	mov	edx, DWORD PTR _sum$[ebp]
	mov	DWORD PTR [edx], ecx

; 351  : 				f = flag;

	mov	eax, DWORD PTR _flag$[ebp]
	mov	DWORD PTR _f$[ebp], eax

; 352  : 				int result = cub_9(table, 21, i, j, k, n, sum, tab, I, J, K);

	mov	eax, DWORD PTR _K$[ebp]
	push	eax
	mov	ecx, DWORD PTR _J$[ebp]
	push	ecx
	mov	edx, DWORD PTR _I$[ebp]
	push	edx
	mov	eax, DWORD PTR _tab$[ebp]
	push	eax
	mov	ecx, DWORD PTR _sum$[ebp]
	push	ecx
	mov	edx, DWORD PTR _n$[ebp]
	push	edx
	mov	eax, DWORD PTR _k$[ebp]
	push	eax
	mov	ecx, DWORD PTR _j$[ebp]
	push	ecx
	mov	edx, DWORD PTR _i$[ebp]
	push	edx
	push	21					; 00000015H
	mov	eax, DWORD PTR _table$[ebp]
	push	eax
	call	?cub_9@@YAHPAPAHHHHHHPAH0HHH@Z		; cub_9
	add	esp, 44					; 0000002cH
	mov	DWORD PTR _result$58[ebp], eax

; 353  : 				if (result == -1 && table[0][n - 1] != n*n) {

	cmp	DWORD PTR _result$58[ebp], -1
	jne	$LN39@cub_9
	mov	eax, 4
	imul	ecx, eax, 0
	mov	edx, DWORD PTR _table$[ebp]
	mov	eax, DWORD PTR [edx+ecx]
	mov	ecx, DWORD PTR _n$[ebp]
	imul	ecx, DWORD PTR _n$[ebp]
	mov	edx, DWORD PTR _n$[ebp]
	cmp	DWORD PTR [eax+edx*4-4], ecx
	je	$LN39@cub_9

; 354  : 					////c_88(table, &i, &j, &k);
; 355  : 
; 356  : 					i = i - 9;

	mov	eax, DWORD PTR _i$[ebp]
	sub	eax, 9
	mov	DWORD PTR _i$[ebp], eax

; 357  : 					table[j++][k] = 0;

	mov	eax, DWORD PTR _j$[ebp]
	mov	ecx, DWORD PTR _table$[ebp]
	mov	edx, DWORD PTR [ecx+eax*4]
	mov	eax, DWORD PTR _k$[ebp]
	mov	DWORD PTR [edx+eax*4], 0
	mov	ecx, DWORD PTR _j$[ebp]
	add	ecx, 1
	mov	DWORD PTR _j$[ebp], ecx

; 358  : 					table[j++][k] = 0;

	mov	eax, DWORD PTR _j$[ebp]
	mov	ecx, DWORD PTR _table$[ebp]
	mov	edx, DWORD PTR [ecx+eax*4]
	mov	eax, DWORD PTR _k$[ebp]
	mov	DWORD PTR [edx+eax*4], 0
	mov	ecx, DWORD PTR _j$[ebp]
	add	ecx, 1
	mov	DWORD PTR _j$[ebp], ecx

; 359  : 					table[j][k++] = 0;

	mov	eax, DWORD PTR _j$[ebp]
	mov	ecx, DWORD PTR _table$[ebp]
	mov	edx, DWORD PTR [ecx+eax*4]
	mov	eax, DWORD PTR _k$[ebp]
	mov	DWORD PTR [edx+eax*4], 0
	mov	ecx, DWORD PTR _k$[ebp]
	add	ecx, 1
	mov	DWORD PTR _k$[ebp], ecx

; 360  : 					table[j][k++] = 0;

	mov	eax, DWORD PTR _j$[ebp]
	mov	ecx, DWORD PTR _table$[ebp]
	mov	edx, DWORD PTR [ecx+eax*4]
	mov	eax, DWORD PTR _k$[ebp]
	mov	DWORD PTR [edx+eax*4], 0
	mov	ecx, DWORD PTR _k$[ebp]
	add	ecx, 1
	mov	DWORD PTR _k$[ebp], ecx

; 361  : 					table[j--][k] = 0;

	mov	eax, DWORD PTR _j$[ebp]
	mov	ecx, DWORD PTR _table$[ebp]
	mov	edx, DWORD PTR [ecx+eax*4]
	mov	eax, DWORD PTR _k$[ebp]
	mov	DWORD PTR [edx+eax*4], 0
	mov	ecx, DWORD PTR _j$[ebp]
	sub	ecx, 1
	mov	DWORD PTR _j$[ebp], ecx

; 362  : 					table[j][k--] = 0;

	mov	eax, DWORD PTR _j$[ebp]
	mov	ecx, DWORD PTR _table$[ebp]
	mov	edx, DWORD PTR [ecx+eax*4]
	mov	eax, DWORD PTR _k$[ebp]
	mov	DWORD PTR [edx+eax*4], 0
	mov	ecx, DWORD PTR _k$[ebp]
	sub	ecx, 1
	mov	DWORD PTR _k$[ebp], ecx

; 363  : 					table[j--][k] = 0;

	mov	eax, DWORD PTR _j$[ebp]
	mov	ecx, DWORD PTR _table$[ebp]
	mov	edx, DWORD PTR [ecx+eax*4]
	mov	eax, DWORD PTR _k$[ebp]
	mov	DWORD PTR [edx+eax*4], 0
	mov	ecx, DWORD PTR _j$[ebp]
	sub	ecx, 1
	mov	DWORD PTR _j$[ebp], ecx

; 364  : 					table[j][k++] = 0;

	mov	eax, DWORD PTR _j$[ebp]
	mov	ecx, DWORD PTR _table$[ebp]
	mov	edx, DWORD PTR [ecx+eax*4]
	mov	eax, DWORD PTR _k$[ebp]
	mov	DWORD PTR [edx+eax*4], 0
	mov	ecx, DWORD PTR _k$[ebp]
	add	ecx, 1
	mov	DWORD PTR _k$[ebp], ecx

; 365  : 					table[j][k] = 0;

	mov	eax, DWORD PTR _j$[ebp]
	mov	ecx, DWORD PTR _table$[ebp]
	mov	edx, DWORD PTR [ecx+eax*4]
	mov	eax, DWORD PTR _k$[ebp]
	mov	DWORD PTR [edx+eax*4], 0

; 366  : 
; 367  : 					*sum += 9;

	mov	eax, DWORD PTR _sum$[ebp]
	mov	ecx, DWORD PTR [eax]
	add	ecx, 9
	mov	edx, DWORD PTR _sum$[ebp]
	mov	DWORD PTR [edx], ecx

; 368  : 					if (f == 31) {

	cmp	DWORD PTR _f$[ebp], 31			; 0000001fH
	jne	SHORT $LN46@cub_9

; 369  : 						K--;

	mov	eax, DWORD PTR _K$[ebp]
	sub	eax, 1
	mov	DWORD PTR _K$[ebp], eax

; 370  : 						k++;

	mov	eax, DWORD PTR _k$[ebp]
	add	eax, 1
	mov	DWORD PTR _k$[ebp], eax

; 371  : 					}

	jmp	SHORT $LN39@cub_9
$LN46@cub_9:

; 372  : 					else {
; 373  : 						J--;

	mov	eax, DWORD PTR _J$[ebp]
	sub	eax, 1
	mov	DWORD PTR _J$[ebp], eax

; 374  : 						j--;

	mov	eax, DWORD PTR _j$[ebp]
	sub	eax, 1
	mov	DWORD PTR _j$[ebp], eax
$LN39@cub_9:

; 375  : 					}
; 376  : 				}
; 377  : 			}
; 378  : 			if (table[0][n - 1] != n * n && flag == 21 && K != 0 && tab[J][K - 1] - tab[J][K] == 1) {

	mov	eax, 4
	imul	ecx, eax, 0
	mov	edx, DWORD PTR _table$[ebp]
	mov	eax, DWORD PTR [edx+ecx]
	mov	ecx, DWORD PTR _n$[ebp]
	imul	ecx, DWORD PTR _n$[ebp]
	mov	edx, DWORD PTR _n$[ebp]
	cmp	DWORD PTR [eax+edx*4-4], ecx
	je	$LN48@cub_9
	cmp	DWORD PTR _flag$[ebp], 21		; 00000015H
	jne	$LN48@cub_9
	cmp	DWORD PTR _K$[ebp], 0
	je	$LN48@cub_9
	mov	eax, DWORD PTR _J$[ebp]
	mov	ecx, DWORD PTR _tab$[ebp]
	mov	edx, DWORD PTR [ecx+eax*4]
	mov	eax, DWORD PTR _J$[ebp]
	mov	ecx, DWORD PTR _tab$[ebp]
	mov	eax, DWORD PTR [ecx+eax*4]
	mov	ecx, DWORD PTR _K$[ebp]
	mov	esi, DWORD PTR _K$[ebp]
	mov	edx, DWORD PTR [edx+ecx*4-4]
	sub	edx, DWORD PTR [eax+esi*4]
	cmp	edx, 1
	jne	$LN48@cub_9

; 379  : 				k--;

	mov	eax, DWORD PTR _k$[ebp]
	sub	eax, 1
	mov	DWORD PTR _k$[ebp], eax

; 380  : 				K--;

	mov	eax, DWORD PTR _K$[ebp]
	sub	eax, 1
	mov	DWORD PTR _K$[ebp], eax

; 381  : 				////c_8(table, &i, &j, &k);
; 382  : 
; 383  : 				table[j][k--] = i++;

	mov	eax, DWORD PTR _j$[ebp]
	mov	ecx, DWORD PTR _table$[ebp]
	mov	edx, DWORD PTR [ecx+eax*4]
	mov	eax, DWORD PTR _k$[ebp]
	mov	ecx, DWORD PTR _i$[ebp]
	mov	DWORD PTR [edx+eax*4], ecx
	mov	edx, DWORD PTR _k$[ebp]
	sub	edx, 1
	mov	DWORD PTR _k$[ebp], edx
	mov	eax, DWORD PTR _i$[ebp]
	add	eax, 1
	mov	DWORD PTR _i$[ebp], eax

; 384  : 				table[j++][k] = i++;

	mov	eax, DWORD PTR _j$[ebp]
	mov	ecx, DWORD PTR _table$[ebp]
	mov	edx, DWORD PTR [ecx+eax*4]
	mov	eax, DWORD PTR _k$[ebp]
	mov	ecx, DWORD PTR _i$[ebp]
	mov	DWORD PTR [edx+eax*4], ecx
	mov	edx, DWORD PTR _j$[ebp]
	add	edx, 1
	mov	DWORD PTR _j$[ebp], edx
	mov	eax, DWORD PTR _i$[ebp]
	add	eax, 1
	mov	DWORD PTR _i$[ebp], eax

; 385  : 				table[j][k++] = i++;

	mov	eax, DWORD PTR _j$[ebp]
	mov	ecx, DWORD PTR _table$[ebp]
	mov	edx, DWORD PTR [ecx+eax*4]
	mov	eax, DWORD PTR _k$[ebp]
	mov	ecx, DWORD PTR _i$[ebp]
	mov	DWORD PTR [edx+eax*4], ecx
	mov	edx, DWORD PTR _k$[ebp]
	add	edx, 1
	mov	DWORD PTR _k$[ebp], edx
	mov	eax, DWORD PTR _i$[ebp]
	add	eax, 1
	mov	DWORD PTR _i$[ebp], eax

; 386  : 				table[j++][k] = i++;

	mov	eax, DWORD PTR _j$[ebp]
	mov	ecx, DWORD PTR _table$[ebp]
	mov	edx, DWORD PTR [ecx+eax*4]
	mov	eax, DWORD PTR _k$[ebp]
	mov	ecx, DWORD PTR _i$[ebp]
	mov	DWORD PTR [edx+eax*4], ecx
	mov	edx, DWORD PTR _j$[ebp]
	add	edx, 1
	mov	DWORD PTR _j$[ebp], edx
	mov	eax, DWORD PTR _i$[ebp]
	add	eax, 1
	mov	DWORD PTR _i$[ebp], eax

; 387  : 				table[j][k--] = i++;

	mov	eax, DWORD PTR _j$[ebp]
	mov	ecx, DWORD PTR _table$[ebp]
	mov	edx, DWORD PTR [ecx+eax*4]
	mov	eax, DWORD PTR _k$[ebp]
	mov	ecx, DWORD PTR _i$[ebp]
	mov	DWORD PTR [edx+eax*4], ecx
	mov	edx, DWORD PTR _k$[ebp]
	sub	edx, 1
	mov	DWORD PTR _k$[ebp], edx
	mov	eax, DWORD PTR _i$[ebp]
	add	eax, 1
	mov	DWORD PTR _i$[ebp], eax

; 388  : 				table[j][k--] = i++;

	mov	eax, DWORD PTR _j$[ebp]
	mov	ecx, DWORD PTR _table$[ebp]
	mov	edx, DWORD PTR [ecx+eax*4]
	mov	eax, DWORD PTR _k$[ebp]
	mov	ecx, DWORD PTR _i$[ebp]
	mov	DWORD PTR [edx+eax*4], ecx
	mov	edx, DWORD PTR _k$[ebp]
	sub	edx, 1
	mov	DWORD PTR _k$[ebp], edx
	mov	eax, DWORD PTR _i$[ebp]
	add	eax, 1
	mov	DWORD PTR _i$[ebp], eax

; 389  : 				table[j--][k] = i++;

	mov	eax, DWORD PTR _j$[ebp]
	mov	ecx, DWORD PTR _table$[ebp]
	mov	edx, DWORD PTR [ecx+eax*4]
	mov	eax, DWORD PTR _k$[ebp]
	mov	ecx, DWORD PTR _i$[ebp]
	mov	DWORD PTR [edx+eax*4], ecx
	mov	edx, DWORD PTR _j$[ebp]
	sub	edx, 1
	mov	DWORD PTR _j$[ebp], edx
	mov	eax, DWORD PTR _i$[ebp]
	add	eax, 1
	mov	DWORD PTR _i$[ebp], eax

; 390  : 				table[j--][k] = i++;

	mov	eax, DWORD PTR _j$[ebp]
	mov	ecx, DWORD PTR _table$[ebp]
	mov	edx, DWORD PTR [ecx+eax*4]
	mov	eax, DWORD PTR _k$[ebp]
	mov	ecx, DWORD PTR _i$[ebp]
	mov	DWORD PTR [edx+eax*4], ecx
	mov	edx, DWORD PTR _j$[ebp]
	sub	edx, 1
	mov	DWORD PTR _j$[ebp], edx
	mov	eax, DWORD PTR _i$[ebp]
	add	eax, 1
	mov	DWORD PTR _i$[ebp], eax

; 391  : 				table[j][k] = i++;

	mov	eax, DWORD PTR _j$[ebp]
	mov	ecx, DWORD PTR _table$[ebp]
	mov	edx, DWORD PTR [ecx+eax*4]
	mov	eax, DWORD PTR _k$[ebp]
	mov	ecx, DWORD PTR _i$[ebp]
	mov	DWORD PTR [edx+eax*4], ecx
	mov	edx, DWORD PTR _i$[ebp]
	add	edx, 1
	mov	DWORD PTR _i$[ebp], edx

; 392  : 
; 393  : 				*sum -= 9;

	mov	eax, DWORD PTR _sum$[ebp]
	mov	ecx, DWORD PTR [eax]
	sub	ecx, 9
	mov	edx, DWORD PTR _sum$[ebp]
	mov	DWORD PTR [edx], ecx

; 394  : 				int result = cub_9(table, 11, i, j, k, n, sum, tab, I, J, K);

	mov	eax, DWORD PTR _K$[ebp]
	push	eax
	mov	ecx, DWORD PTR _J$[ebp]
	push	ecx
	mov	edx, DWORD PTR _I$[ebp]
	push	edx
	mov	eax, DWORD PTR _tab$[ebp]
	push	eax
	mov	ecx, DWORD PTR _sum$[ebp]
	push	ecx
	mov	edx, DWORD PTR _n$[ebp]
	push	edx
	mov	eax, DWORD PTR _k$[ebp]
	push	eax
	mov	ecx, DWORD PTR _j$[ebp]
	push	ecx
	mov	edx, DWORD PTR _i$[ebp]
	push	edx
	push	11					; 0000000bH
	mov	eax, DWORD PTR _table$[ebp]
	push	eax
	call	?cub_9@@YAHPAPAHHHHHHPAH0HHH@Z		; cub_9
	add	esp, 44					; 0000002cH
	mov	DWORD PTR _result$57[ebp], eax

; 395  : 				if (result == -1 && table[0][n - 1] != n*n) {

	cmp	DWORD PTR _result$57[ebp], -1
	jne	$LN48@cub_9
	mov	eax, 4
	imul	ecx, eax, 0
	mov	edx, DWORD PTR _table$[ebp]
	mov	eax, DWORD PTR [edx+ecx]
	mov	ecx, DWORD PTR _n$[ebp]
	imul	ecx, DWORD PTR _n$[ebp]
	mov	edx, DWORD PTR _n$[ebp]
	cmp	DWORD PTR [eax+edx*4-4], ecx
	je	$LN48@cub_9

; 396  : 					////c_88(table, &i, &j, &k);
; 397  : 
; 398  : 					i = i - 9;

	mov	eax, DWORD PTR _i$[ebp]
	sub	eax, 9
	mov	DWORD PTR _i$[ebp], eax

; 399  : 					table[j++][k] = 0;

	mov	eax, DWORD PTR _j$[ebp]
	mov	ecx, DWORD PTR _table$[ebp]
	mov	edx, DWORD PTR [ecx+eax*4]
	mov	eax, DWORD PTR _k$[ebp]
	mov	DWORD PTR [edx+eax*4], 0
	mov	ecx, DWORD PTR _j$[ebp]
	add	ecx, 1
	mov	DWORD PTR _j$[ebp], ecx

; 400  : 					table[j++][k] = 0;

	mov	eax, DWORD PTR _j$[ebp]
	mov	ecx, DWORD PTR _table$[ebp]
	mov	edx, DWORD PTR [ecx+eax*4]
	mov	eax, DWORD PTR _k$[ebp]
	mov	DWORD PTR [edx+eax*4], 0
	mov	ecx, DWORD PTR _j$[ebp]
	add	ecx, 1
	mov	DWORD PTR _j$[ebp], ecx

; 401  : 					table[j][k++] = 0;

	mov	eax, DWORD PTR _j$[ebp]
	mov	ecx, DWORD PTR _table$[ebp]
	mov	edx, DWORD PTR [ecx+eax*4]
	mov	eax, DWORD PTR _k$[ebp]
	mov	DWORD PTR [edx+eax*4], 0
	mov	ecx, DWORD PTR _k$[ebp]
	add	ecx, 1
	mov	DWORD PTR _k$[ebp], ecx

; 402  : 					table[j][k++] = 0;

	mov	eax, DWORD PTR _j$[ebp]
	mov	ecx, DWORD PTR _table$[ebp]
	mov	edx, DWORD PTR [ecx+eax*4]
	mov	eax, DWORD PTR _k$[ebp]
	mov	DWORD PTR [edx+eax*4], 0
	mov	ecx, DWORD PTR _k$[ebp]
	add	ecx, 1
	mov	DWORD PTR _k$[ebp], ecx

; 403  : 					table[j--][k] = 0;

	mov	eax, DWORD PTR _j$[ebp]
	mov	ecx, DWORD PTR _table$[ebp]
	mov	edx, DWORD PTR [ecx+eax*4]
	mov	eax, DWORD PTR _k$[ebp]
	mov	DWORD PTR [edx+eax*4], 0
	mov	ecx, DWORD PTR _j$[ebp]
	sub	ecx, 1
	mov	DWORD PTR _j$[ebp], ecx

; 404  : 					table[j][k--] = 0;

	mov	eax, DWORD PTR _j$[ebp]
	mov	ecx, DWORD PTR _table$[ebp]
	mov	edx, DWORD PTR [ecx+eax*4]
	mov	eax, DWORD PTR _k$[ebp]
	mov	DWORD PTR [edx+eax*4], 0
	mov	ecx, DWORD PTR _k$[ebp]
	sub	ecx, 1
	mov	DWORD PTR _k$[ebp], ecx

; 405  : 					table[j--][k] = 0;

	mov	eax, DWORD PTR _j$[ebp]
	mov	ecx, DWORD PTR _table$[ebp]
	mov	edx, DWORD PTR [ecx+eax*4]
	mov	eax, DWORD PTR _k$[ebp]
	mov	DWORD PTR [edx+eax*4], 0
	mov	ecx, DWORD PTR _j$[ebp]
	sub	ecx, 1
	mov	DWORD PTR _j$[ebp], ecx

; 406  : 					table[j][k++] = 0;

	mov	eax, DWORD PTR _j$[ebp]
	mov	ecx, DWORD PTR _table$[ebp]
	mov	edx, DWORD PTR [ecx+eax*4]
	mov	eax, DWORD PTR _k$[ebp]
	mov	DWORD PTR [edx+eax*4], 0
	mov	ecx, DWORD PTR _k$[ebp]
	add	ecx, 1
	mov	DWORD PTR _k$[ebp], ecx

; 407  : 					table[j][k] = 0;

	mov	eax, DWORD PTR _j$[ebp]
	mov	ecx, DWORD PTR _table$[ebp]
	mov	edx, DWORD PTR [ecx+eax*4]
	mov	eax, DWORD PTR _k$[ebp]
	mov	DWORD PTR [edx+eax*4], 0

; 408  : 
; 409  : 					*sum += 9;

	mov	eax, DWORD PTR _sum$[ebp]
	mov	ecx, DWORD PTR [eax]
	add	ecx, 9
	mov	edx, DWORD PTR _sum$[ebp]
	mov	DWORD PTR [edx], ecx

; 410  : 					K++;

	mov	eax, DWORD PTR _K$[ebp]
	add	eax, 1
	mov	DWORD PTR _K$[ebp], eax

; 411  : 					k++;

	mov	eax, DWORD PTR _k$[ebp]
	add	eax, 1
	mov	DWORD PTR _k$[ebp], eax
$LN48@cub_9:

; 412  : 				}
; 413  : 			}
; 414  : 			if (table[0][n - 1] != n * n && flag == 19 || flag == 41) {

	mov	eax, 4
	imul	ecx, eax, 0
	mov	edx, DWORD PTR _table$[ebp]
	mov	eax, DWORD PTR [edx+ecx]
	mov	ecx, DWORD PTR _n$[ebp]
	imul	ecx, DWORD PTR _n$[ebp]
	mov	edx, DWORD PTR _n$[ebp]
	cmp	DWORD PTR [eax+edx*4-4], ecx
	je	SHORT $LN52@cub_9
	cmp	DWORD PTR _flag$[ebp], 19		; 00000013H
	je	SHORT $LN51@cub_9
$LN52@cub_9:
	cmp	DWORD PTR _flag$[ebp], 41		; 00000029H
	jne	$LN50@cub_9
$LN51@cub_9:

; 415  : 				if (table[0][n - 1] != n * n && flag == 19 && K != n / 3 - 1 && tab[J][K + 1] - tab[J][K] == 1) {

	mov	eax, 4
	imul	ecx, eax, 0
	mov	edx, DWORD PTR _table$[ebp]
	mov	eax, DWORD PTR [edx+ecx]
	mov	ecx, DWORD PTR _n$[ebp]
	imul	ecx, DWORD PTR _n$[ebp]
	mov	edx, DWORD PTR _n$[ebp]
	cmp	DWORD PTR [eax+edx*4-4], ecx
	je	$LN53@cub_9
	cmp	DWORD PTR _flag$[ebp], 19		; 00000013H
	jne	$LN53@cub_9
	mov	eax, DWORD PTR _n$[ebp]
	cdq
	mov	ecx, 3
	idiv	ecx
	sub	eax, 1
	cmp	DWORD PTR _K$[ebp], eax
	je	$LN53@cub_9
	mov	eax, DWORD PTR _J$[ebp]
	mov	ecx, DWORD PTR _tab$[ebp]
	mov	edx, DWORD PTR [ecx+eax*4]
	mov	eax, DWORD PTR _J$[ebp]
	mov	ecx, DWORD PTR _tab$[ebp]
	mov	eax, DWORD PTR [ecx+eax*4]
	mov	ecx, DWORD PTR _K$[ebp]
	mov	esi, DWORD PTR _K$[ebp]
	mov	edx, DWORD PTR [edx+ecx*4+4]
	sub	edx, DWORD PTR [eax+esi*4]
	cmp	edx, 1
	jne	$LN53@cub_9

; 416  : 					k++;

	mov	eax, DWORD PTR _k$[ebp]
	add	eax, 1
	mov	DWORD PTR _k$[ebp], eax

; 417  : 					K++;

	mov	eax, DWORD PTR _K$[ebp]
	add	eax, 1
	mov	DWORD PTR _K$[ebp], eax

; 418  : 					////c_3(table, &i, &j, &k);
; 419  : 
; 420  : 					table[j][k++] = i++;

	mov	eax, DWORD PTR _j$[ebp]
	mov	ecx, DWORD PTR _table$[ebp]
	mov	edx, DWORD PTR [ecx+eax*4]
	mov	eax, DWORD PTR _k$[ebp]
	mov	ecx, DWORD PTR _i$[ebp]
	mov	DWORD PTR [edx+eax*4], ecx
	mov	edx, DWORD PTR _k$[ebp]
	add	edx, 1
	mov	DWORD PTR _k$[ebp], edx
	mov	eax, DWORD PTR _i$[ebp]
	add	eax, 1
	mov	DWORD PTR _i$[ebp], eax

; 421  : 					table[j--][k] = i++;

	mov	eax, DWORD PTR _j$[ebp]
	mov	ecx, DWORD PTR _table$[ebp]
	mov	edx, DWORD PTR [ecx+eax*4]
	mov	eax, DWORD PTR _k$[ebp]
	mov	ecx, DWORD PTR _i$[ebp]
	mov	DWORD PTR [edx+eax*4], ecx
	mov	edx, DWORD PTR _j$[ebp]
	sub	edx, 1
	mov	DWORD PTR _j$[ebp], edx
	mov	eax, DWORD PTR _i$[ebp]
	add	eax, 1
	mov	DWORD PTR _i$[ebp], eax

; 422  : 					table[j][k--] = i++;

	mov	eax, DWORD PTR _j$[ebp]
	mov	ecx, DWORD PTR _table$[ebp]
	mov	edx, DWORD PTR [ecx+eax*4]
	mov	eax, DWORD PTR _k$[ebp]
	mov	ecx, DWORD PTR _i$[ebp]
	mov	DWORD PTR [edx+eax*4], ecx
	mov	edx, DWORD PTR _k$[ebp]
	sub	edx, 1
	mov	DWORD PTR _k$[ebp], edx
	mov	eax, DWORD PTR _i$[ebp]
	add	eax, 1
	mov	DWORD PTR _i$[ebp], eax

; 423  : 					table[j--][k] = i++;

	mov	eax, DWORD PTR _j$[ebp]
	mov	ecx, DWORD PTR _table$[ebp]
	mov	edx, DWORD PTR [ecx+eax*4]
	mov	eax, DWORD PTR _k$[ebp]
	mov	ecx, DWORD PTR _i$[ebp]
	mov	DWORD PTR [edx+eax*4], ecx
	mov	edx, DWORD PTR _j$[ebp]
	sub	edx, 1
	mov	DWORD PTR _j$[ebp], edx
	mov	eax, DWORD PTR _i$[ebp]
	add	eax, 1
	mov	DWORD PTR _i$[ebp], eax

; 424  : 					table[j][k++] = i++;

	mov	eax, DWORD PTR _j$[ebp]
	mov	ecx, DWORD PTR _table$[ebp]
	mov	edx, DWORD PTR [ecx+eax*4]
	mov	eax, DWORD PTR _k$[ebp]
	mov	ecx, DWORD PTR _i$[ebp]
	mov	DWORD PTR [edx+eax*4], ecx
	mov	edx, DWORD PTR _k$[ebp]
	add	edx, 1
	mov	DWORD PTR _k$[ebp], edx
	mov	eax, DWORD PTR _i$[ebp]
	add	eax, 1
	mov	DWORD PTR _i$[ebp], eax

; 425  : 					table[j][k++] = i++;

	mov	eax, DWORD PTR _j$[ebp]
	mov	ecx, DWORD PTR _table$[ebp]
	mov	edx, DWORD PTR [ecx+eax*4]
	mov	eax, DWORD PTR _k$[ebp]
	mov	ecx, DWORD PTR _i$[ebp]
	mov	DWORD PTR [edx+eax*4], ecx
	mov	edx, DWORD PTR _k$[ebp]
	add	edx, 1
	mov	DWORD PTR _k$[ebp], edx
	mov	eax, DWORD PTR _i$[ebp]
	add	eax, 1
	mov	DWORD PTR _i$[ebp], eax

; 426  : 					table[j++][k] = i++;

	mov	eax, DWORD PTR _j$[ebp]
	mov	ecx, DWORD PTR _table$[ebp]
	mov	edx, DWORD PTR [ecx+eax*4]
	mov	eax, DWORD PTR _k$[ebp]
	mov	ecx, DWORD PTR _i$[ebp]
	mov	DWORD PTR [edx+eax*4], ecx
	mov	edx, DWORD PTR _j$[ebp]
	add	edx, 1
	mov	DWORD PTR _j$[ebp], edx
	mov	eax, DWORD PTR _i$[ebp]
	add	eax, 1
	mov	DWORD PTR _i$[ebp], eax

; 427  : 					table[j++][k] = i++;

	mov	eax, DWORD PTR _j$[ebp]
	mov	ecx, DWORD PTR _table$[ebp]
	mov	edx, DWORD PTR [ecx+eax*4]
	mov	eax, DWORD PTR _k$[ebp]
	mov	ecx, DWORD PTR _i$[ebp]
	mov	DWORD PTR [edx+eax*4], ecx
	mov	edx, DWORD PTR _j$[ebp]
	add	edx, 1
	mov	DWORD PTR _j$[ebp], edx
	mov	eax, DWORD PTR _i$[ebp]
	add	eax, 1
	mov	DWORD PTR _i$[ebp], eax

; 428  : 					table[j][k] = i++;

	mov	eax, DWORD PTR _j$[ebp]
	mov	ecx, DWORD PTR _table$[ebp]
	mov	edx, DWORD PTR [ecx+eax*4]
	mov	eax, DWORD PTR _k$[ebp]
	mov	ecx, DWORD PTR _i$[ebp]
	mov	DWORD PTR [edx+eax*4], ecx
	mov	edx, DWORD PTR _i$[ebp]
	add	edx, 1
	mov	DWORD PTR _i$[ebp], edx

; 429  : 
; 430  : 				}

	jmp	$LN54@cub_9
$LN53@cub_9:

; 431  : 				else if (j != 0 && J != 0 && tab[J - 1][K] - tab[J][K] == 1) {

	cmp	DWORD PTR _j$[ebp], 0
	je	$LN54@cub_9
	cmp	DWORD PTR _J$[ebp], 0
	je	$LN54@cub_9
	mov	eax, DWORD PTR _J$[ebp]
	mov	ecx, DWORD PTR _tab$[ebp]
	mov	edx, DWORD PTR [ecx+eax*4-4]
	mov	eax, DWORD PTR _J$[ebp]
	mov	ecx, DWORD PTR _tab$[ebp]
	mov	eax, DWORD PTR [ecx+eax*4]
	mov	ecx, DWORD PTR _K$[ebp]
	mov	esi, DWORD PTR _K$[ebp]
	mov	edx, DWORD PTR [edx+ecx*4]
	sub	edx, DWORD PTR [eax+esi*4]
	cmp	edx, 1
	jne	$LN54@cub_9

; 432  : 					j--;

	mov	eax, DWORD PTR _j$[ebp]
	sub	eax, 1
	mov	DWORD PTR _j$[ebp], eax

; 433  : 					J--;

	mov	eax, DWORD PTR _J$[ebp]
	sub	eax, 1
	mov	DWORD PTR _J$[ebp], eax

; 434  : 					////c_3(table, &i, &j, &k);
; 435  : 
; 436  : 					table[j][k++] = i++;

	mov	eax, DWORD PTR _j$[ebp]
	mov	ecx, DWORD PTR _table$[ebp]
	mov	edx, DWORD PTR [ecx+eax*4]
	mov	eax, DWORD PTR _k$[ebp]
	mov	ecx, DWORD PTR _i$[ebp]
	mov	DWORD PTR [edx+eax*4], ecx
	mov	edx, DWORD PTR _k$[ebp]
	add	edx, 1
	mov	DWORD PTR _k$[ebp], edx
	mov	eax, DWORD PTR _i$[ebp]
	add	eax, 1
	mov	DWORD PTR _i$[ebp], eax

; 437  : 					table[j--][k] = i++;

	mov	eax, DWORD PTR _j$[ebp]
	mov	ecx, DWORD PTR _table$[ebp]
	mov	edx, DWORD PTR [ecx+eax*4]
	mov	eax, DWORD PTR _k$[ebp]
	mov	ecx, DWORD PTR _i$[ebp]
	mov	DWORD PTR [edx+eax*4], ecx
	mov	edx, DWORD PTR _j$[ebp]
	sub	edx, 1
	mov	DWORD PTR _j$[ebp], edx
	mov	eax, DWORD PTR _i$[ebp]
	add	eax, 1
	mov	DWORD PTR _i$[ebp], eax

; 438  : 					table[j][k--] = i++;

	mov	eax, DWORD PTR _j$[ebp]
	mov	ecx, DWORD PTR _table$[ebp]
	mov	edx, DWORD PTR [ecx+eax*4]
	mov	eax, DWORD PTR _k$[ebp]
	mov	ecx, DWORD PTR _i$[ebp]
	mov	DWORD PTR [edx+eax*4], ecx
	mov	edx, DWORD PTR _k$[ebp]
	sub	edx, 1
	mov	DWORD PTR _k$[ebp], edx
	mov	eax, DWORD PTR _i$[ebp]
	add	eax, 1
	mov	DWORD PTR _i$[ebp], eax

; 439  : 					table[j--][k] = i++;

	mov	eax, DWORD PTR _j$[ebp]
	mov	ecx, DWORD PTR _table$[ebp]
	mov	edx, DWORD PTR [ecx+eax*4]
	mov	eax, DWORD PTR _k$[ebp]
	mov	ecx, DWORD PTR _i$[ebp]
	mov	DWORD PTR [edx+eax*4], ecx
	mov	edx, DWORD PTR _j$[ebp]
	sub	edx, 1
	mov	DWORD PTR _j$[ebp], edx
	mov	eax, DWORD PTR _i$[ebp]
	add	eax, 1
	mov	DWORD PTR _i$[ebp], eax

; 440  : 					table[j][k++] = i++;

	mov	eax, DWORD PTR _j$[ebp]
	mov	ecx, DWORD PTR _table$[ebp]
	mov	edx, DWORD PTR [ecx+eax*4]
	mov	eax, DWORD PTR _k$[ebp]
	mov	ecx, DWORD PTR _i$[ebp]
	mov	DWORD PTR [edx+eax*4], ecx
	mov	edx, DWORD PTR _k$[ebp]
	add	edx, 1
	mov	DWORD PTR _k$[ebp], edx
	mov	eax, DWORD PTR _i$[ebp]
	add	eax, 1
	mov	DWORD PTR _i$[ebp], eax

; 441  : 					table[j][k++] = i++;

	mov	eax, DWORD PTR _j$[ebp]
	mov	ecx, DWORD PTR _table$[ebp]
	mov	edx, DWORD PTR [ecx+eax*4]
	mov	eax, DWORD PTR _k$[ebp]
	mov	ecx, DWORD PTR _i$[ebp]
	mov	DWORD PTR [edx+eax*4], ecx
	mov	edx, DWORD PTR _k$[ebp]
	add	edx, 1
	mov	DWORD PTR _k$[ebp], edx
	mov	eax, DWORD PTR _i$[ebp]
	add	eax, 1
	mov	DWORD PTR _i$[ebp], eax

; 442  : 					table[j++][k] = i++;

	mov	eax, DWORD PTR _j$[ebp]
	mov	ecx, DWORD PTR _table$[ebp]
	mov	edx, DWORD PTR [ecx+eax*4]
	mov	eax, DWORD PTR _k$[ebp]
	mov	ecx, DWORD PTR _i$[ebp]
	mov	DWORD PTR [edx+eax*4], ecx
	mov	edx, DWORD PTR _j$[ebp]
	add	edx, 1
	mov	DWORD PTR _j$[ebp], edx
	mov	eax, DWORD PTR _i$[ebp]
	add	eax, 1
	mov	DWORD PTR _i$[ebp], eax

; 443  : 					table[j++][k] = i++;

	mov	eax, DWORD PTR _j$[ebp]
	mov	ecx, DWORD PTR _table$[ebp]
	mov	edx, DWORD PTR [ecx+eax*4]
	mov	eax, DWORD PTR _k$[ebp]
	mov	ecx, DWORD PTR _i$[ebp]
	mov	DWORD PTR [edx+eax*4], ecx
	mov	edx, DWORD PTR _j$[ebp]
	add	edx, 1
	mov	DWORD PTR _j$[ebp], edx
	mov	eax, DWORD PTR _i$[ebp]
	add	eax, 1
	mov	DWORD PTR _i$[ebp], eax

; 444  : 					table[j][k] = i++;

	mov	eax, DWORD PTR _j$[ebp]
	mov	ecx, DWORD PTR _table$[ebp]
	mov	edx, DWORD PTR [ecx+eax*4]
	mov	eax, DWORD PTR _k$[ebp]
	mov	ecx, DWORD PTR _i$[ebp]
	mov	DWORD PTR [edx+eax*4], ecx
	mov	edx, DWORD PTR _i$[ebp]
	add	edx, 1
	mov	DWORD PTR _i$[ebp], edx
$LN54@cub_9:

; 445  : 
; 446  : 				}
; 447  : 				*sum -= 9;

	mov	eax, DWORD PTR _sum$[ebp]
	mov	ecx, DWORD PTR [eax]
	sub	ecx, 9
	mov	edx, DWORD PTR _sum$[ebp]
	mov	DWORD PTR [edx], ecx

; 448  : 				f = flag;

	mov	eax, DWORD PTR _flag$[ebp]
	mov	DWORD PTR _f$[ebp], eax

; 449  : 				int result = cub_9(table, 49, i, j, k, n, sum, tab, I, J, K);

	mov	eax, DWORD PTR _K$[ebp]
	push	eax
	mov	ecx, DWORD PTR _J$[ebp]
	push	ecx
	mov	edx, DWORD PTR _I$[ebp]
	push	edx
	mov	eax, DWORD PTR _tab$[ebp]
	push	eax
	mov	ecx, DWORD PTR _sum$[ebp]
	push	ecx
	mov	edx, DWORD PTR _n$[ebp]
	push	edx
	mov	eax, DWORD PTR _k$[ebp]
	push	eax
	mov	ecx, DWORD PTR _j$[ebp]
	push	ecx
	mov	edx, DWORD PTR _i$[ebp]
	push	edx
	push	49					; 00000031H
	mov	eax, DWORD PTR _table$[ebp]
	push	eax
	call	?cub_9@@YAHPAPAHHHHHHPAH0HHH@Z		; cub_9
	add	esp, 44					; 0000002cH
	mov	DWORD PTR _result$56[ebp], eax

; 450  : 				if (result == -1 && table[0][n - 1] != n*n) {

	cmp	DWORD PTR _result$56[ebp], -1
	jne	$LN50@cub_9
	mov	eax, 4
	imul	ecx, eax, 0
	mov	edx, DWORD PTR _table$[ebp]
	mov	eax, DWORD PTR [edx+ecx]
	mov	ecx, DWORD PTR _n$[ebp]
	imul	ecx, DWORD PTR _n$[ebp]
	mov	edx, DWORD PTR _n$[ebp]
	cmp	DWORD PTR [eax+edx*4-4], ecx
	je	$LN50@cub_9

; 451  : 					////c_33(table, &i, &j, &k);
; 452  : 
; 453  : 					i = i - 9;

	mov	eax, DWORD PTR _i$[ebp]
	sub	eax, 9
	mov	DWORD PTR _i$[ebp], eax

; 454  : 					table[j--][k] = 0;

	mov	eax, DWORD PTR _j$[ebp]
	mov	ecx, DWORD PTR _table$[ebp]
	mov	edx, DWORD PTR [ecx+eax*4]
	mov	eax, DWORD PTR _k$[ebp]
	mov	DWORD PTR [edx+eax*4], 0
	mov	ecx, DWORD PTR _j$[ebp]
	sub	ecx, 1
	mov	DWORD PTR _j$[ebp], ecx

; 455  : 					table[j--][k] = 0;

	mov	eax, DWORD PTR _j$[ebp]
	mov	ecx, DWORD PTR _table$[ebp]
	mov	edx, DWORD PTR [ecx+eax*4]
	mov	eax, DWORD PTR _k$[ebp]
	mov	DWORD PTR [edx+eax*4], 0
	mov	ecx, DWORD PTR _j$[ebp]
	sub	ecx, 1
	mov	DWORD PTR _j$[ebp], ecx

; 456  : 					table[j][k--] = 0;

	mov	eax, DWORD PTR _j$[ebp]
	mov	ecx, DWORD PTR _table$[ebp]
	mov	edx, DWORD PTR [ecx+eax*4]
	mov	eax, DWORD PTR _k$[ebp]
	mov	DWORD PTR [edx+eax*4], 0
	mov	ecx, DWORD PTR _k$[ebp]
	sub	ecx, 1
	mov	DWORD PTR _k$[ebp], ecx

; 457  : 					table[j][k--] = 0;

	mov	eax, DWORD PTR _j$[ebp]
	mov	ecx, DWORD PTR _table$[ebp]
	mov	edx, DWORD PTR [ecx+eax*4]
	mov	eax, DWORD PTR _k$[ebp]
	mov	DWORD PTR [edx+eax*4], 0
	mov	ecx, DWORD PTR _k$[ebp]
	sub	ecx, 1
	mov	DWORD PTR _k$[ebp], ecx

; 458  : 					table[j++][k] = 0;

	mov	eax, DWORD PTR _j$[ebp]
	mov	ecx, DWORD PTR _table$[ebp]
	mov	edx, DWORD PTR [ecx+eax*4]
	mov	eax, DWORD PTR _k$[ebp]
	mov	DWORD PTR [edx+eax*4], 0
	mov	ecx, DWORD PTR _j$[ebp]
	add	ecx, 1
	mov	DWORD PTR _j$[ebp], ecx

; 459  : 					table[j][k++] = 0;

	mov	eax, DWORD PTR _j$[ebp]
	mov	ecx, DWORD PTR _table$[ebp]
	mov	edx, DWORD PTR [ecx+eax*4]
	mov	eax, DWORD PTR _k$[ebp]
	mov	DWORD PTR [edx+eax*4], 0
	mov	ecx, DWORD PTR _k$[ebp]
	add	ecx, 1
	mov	DWORD PTR _k$[ebp], ecx

; 460  : 					table[j++][k] = 0;

	mov	eax, DWORD PTR _j$[ebp]
	mov	ecx, DWORD PTR _table$[ebp]
	mov	edx, DWORD PTR [ecx+eax*4]
	mov	eax, DWORD PTR _k$[ebp]
	mov	DWORD PTR [edx+eax*4], 0
	mov	ecx, DWORD PTR _j$[ebp]
	add	ecx, 1
	mov	DWORD PTR _j$[ebp], ecx

; 461  : 					table[j][k--] = 0;

	mov	eax, DWORD PTR _j$[ebp]
	mov	ecx, DWORD PTR _table$[ebp]
	mov	edx, DWORD PTR [ecx+eax*4]
	mov	eax, DWORD PTR _k$[ebp]
	mov	DWORD PTR [edx+eax*4], 0
	mov	ecx, DWORD PTR _k$[ebp]
	sub	ecx, 1
	mov	DWORD PTR _k$[ebp], ecx

; 462  : 
; 463  : 					table[j][k] = 0;

	mov	eax, DWORD PTR _j$[ebp]
	mov	ecx, DWORD PTR _table$[ebp]
	mov	edx, DWORD PTR [ecx+eax*4]
	mov	eax, DWORD PTR _k$[ebp]
	mov	DWORD PTR [edx+eax*4], 0

; 464  : 
; 465  : 					*sum += 9;

	mov	eax, DWORD PTR _sum$[ebp]
	mov	ecx, DWORD PTR [eax]
	add	ecx, 9
	mov	edx, DWORD PTR _sum$[ebp]
	mov	DWORD PTR [edx], ecx

; 466  : 					if (f == 19) {

	cmp	DWORD PTR _f$[ebp], 19			; 00000013H
	jne	SHORT $LN57@cub_9

; 467  : 						K--;

	mov	eax, DWORD PTR _K$[ebp]
	sub	eax, 1
	mov	DWORD PTR _K$[ebp], eax

; 468  : 						k--;

	mov	eax, DWORD PTR _k$[ebp]
	sub	eax, 1
	mov	DWORD PTR _k$[ebp], eax

; 469  : 					}

	jmp	SHORT $LN50@cub_9
$LN57@cub_9:

; 470  : 					else {
; 471  : 						J++;

	mov	eax, DWORD PTR _J$[ebp]
	add	eax, 1
	mov	DWORD PTR _J$[ebp], eax

; 472  : 						j++;

	mov	eax, DWORD PTR _j$[ebp]
	add	eax, 1
	mov	DWORD PTR _j$[ebp], eax
$LN50@cub_9:

; 473  : 					}
; 474  : 				}
; 475  : 			}
; 476  : 			if (table[0][n - 1] != n * n && flag == 49 && K != n / 3 - 1 && tab[J][K + 1] - tab[J][K] == 1) {

	mov	eax, 4
	imul	ecx, eax, 0
	mov	edx, DWORD PTR _table$[ebp]
	mov	eax, DWORD PTR [edx+ecx]
	mov	ecx, DWORD PTR _n$[ebp]
	imul	ecx, DWORD PTR _n$[ebp]
	mov	edx, DWORD PTR _n$[ebp]
	cmp	DWORD PTR [eax+edx*4-4], ecx
	je	$LN59@cub_9
	cmp	DWORD PTR _flag$[ebp], 49		; 00000031H
	jne	$LN59@cub_9
	mov	eax, DWORD PTR _n$[ebp]
	cdq
	mov	ecx, 3
	idiv	ecx
	sub	eax, 1
	cmp	DWORD PTR _K$[ebp], eax
	je	$LN59@cub_9
	mov	eax, DWORD PTR _J$[ebp]
	mov	ecx, DWORD PTR _tab$[ebp]
	mov	edx, DWORD PTR [ecx+eax*4]
	mov	eax, DWORD PTR _J$[ebp]
	mov	ecx, DWORD PTR _tab$[ebp]
	mov	eax, DWORD PTR [ecx+eax*4]
	mov	ecx, DWORD PTR _K$[ebp]
	mov	esi, DWORD PTR _K$[ebp]
	mov	edx, DWORD PTR [edx+ecx*4+4]
	sub	edx, DWORD PTR [eax+esi*4]
	cmp	edx, 1
	jne	$LN59@cub_9

; 477  : 				k++;

	mov	eax, DWORD PTR _k$[ebp]
	add	eax, 1
	mov	DWORD PTR _k$[ebp], eax

; 478  : 				K++;

	mov	eax, DWORD PTR _K$[ebp]
	add	eax, 1
	mov	DWORD PTR _K$[ebp], eax

; 479  : 				////c_3(table, &i, &j, &k);
; 480  : 
; 481  : 				table[j][k++] = i++;

	mov	eax, DWORD PTR _j$[ebp]
	mov	ecx, DWORD PTR _table$[ebp]
	mov	edx, DWORD PTR [ecx+eax*4]
	mov	eax, DWORD PTR _k$[ebp]
	mov	ecx, DWORD PTR _i$[ebp]
	mov	DWORD PTR [edx+eax*4], ecx
	mov	edx, DWORD PTR _k$[ebp]
	add	edx, 1
	mov	DWORD PTR _k$[ebp], edx
	mov	eax, DWORD PTR _i$[ebp]
	add	eax, 1
	mov	DWORD PTR _i$[ebp], eax

; 482  : 				table[j--][k] = i++;

	mov	eax, DWORD PTR _j$[ebp]
	mov	ecx, DWORD PTR _table$[ebp]
	mov	edx, DWORD PTR [ecx+eax*4]
	mov	eax, DWORD PTR _k$[ebp]
	mov	ecx, DWORD PTR _i$[ebp]
	mov	DWORD PTR [edx+eax*4], ecx
	mov	edx, DWORD PTR _j$[ebp]
	sub	edx, 1
	mov	DWORD PTR _j$[ebp], edx
	mov	eax, DWORD PTR _i$[ebp]
	add	eax, 1
	mov	DWORD PTR _i$[ebp], eax

; 483  : 				table[j][k--] = i++;

	mov	eax, DWORD PTR _j$[ebp]
	mov	ecx, DWORD PTR _table$[ebp]
	mov	edx, DWORD PTR [ecx+eax*4]
	mov	eax, DWORD PTR _k$[ebp]
	mov	ecx, DWORD PTR _i$[ebp]
	mov	DWORD PTR [edx+eax*4], ecx
	mov	edx, DWORD PTR _k$[ebp]
	sub	edx, 1
	mov	DWORD PTR _k$[ebp], edx
	mov	eax, DWORD PTR _i$[ebp]
	add	eax, 1
	mov	DWORD PTR _i$[ebp], eax

; 484  : 				table[j--][k] = i++;

	mov	eax, DWORD PTR _j$[ebp]
	mov	ecx, DWORD PTR _table$[ebp]
	mov	edx, DWORD PTR [ecx+eax*4]
	mov	eax, DWORD PTR _k$[ebp]
	mov	ecx, DWORD PTR _i$[ebp]
	mov	DWORD PTR [edx+eax*4], ecx
	mov	edx, DWORD PTR _j$[ebp]
	sub	edx, 1
	mov	DWORD PTR _j$[ebp], edx
	mov	eax, DWORD PTR _i$[ebp]
	add	eax, 1
	mov	DWORD PTR _i$[ebp], eax

; 485  : 				table[j][k++] = i++;

	mov	eax, DWORD PTR _j$[ebp]
	mov	ecx, DWORD PTR _table$[ebp]
	mov	edx, DWORD PTR [ecx+eax*4]
	mov	eax, DWORD PTR _k$[ebp]
	mov	ecx, DWORD PTR _i$[ebp]
	mov	DWORD PTR [edx+eax*4], ecx
	mov	edx, DWORD PTR _k$[ebp]
	add	edx, 1
	mov	DWORD PTR _k$[ebp], edx
	mov	eax, DWORD PTR _i$[ebp]
	add	eax, 1
	mov	DWORD PTR _i$[ebp], eax

; 486  : 				table[j][k++] = i++;

	mov	eax, DWORD PTR _j$[ebp]
	mov	ecx, DWORD PTR _table$[ebp]
	mov	edx, DWORD PTR [ecx+eax*4]
	mov	eax, DWORD PTR _k$[ebp]
	mov	ecx, DWORD PTR _i$[ebp]
	mov	DWORD PTR [edx+eax*4], ecx
	mov	edx, DWORD PTR _k$[ebp]
	add	edx, 1
	mov	DWORD PTR _k$[ebp], edx
	mov	eax, DWORD PTR _i$[ebp]
	add	eax, 1
	mov	DWORD PTR _i$[ebp], eax

; 487  : 				table[j++][k] = i++;

	mov	eax, DWORD PTR _j$[ebp]
	mov	ecx, DWORD PTR _table$[ebp]
	mov	edx, DWORD PTR [ecx+eax*4]
	mov	eax, DWORD PTR _k$[ebp]
	mov	ecx, DWORD PTR _i$[ebp]
	mov	DWORD PTR [edx+eax*4], ecx
	mov	edx, DWORD PTR _j$[ebp]
	add	edx, 1
	mov	DWORD PTR _j$[ebp], edx
	mov	eax, DWORD PTR _i$[ebp]
	add	eax, 1
	mov	DWORD PTR _i$[ebp], eax

; 488  : 				table[j++][k] = i++;

	mov	eax, DWORD PTR _j$[ebp]
	mov	ecx, DWORD PTR _table$[ebp]
	mov	edx, DWORD PTR [ecx+eax*4]
	mov	eax, DWORD PTR _k$[ebp]
	mov	ecx, DWORD PTR _i$[ebp]
	mov	DWORD PTR [edx+eax*4], ecx
	mov	edx, DWORD PTR _j$[ebp]
	add	edx, 1
	mov	DWORD PTR _j$[ebp], edx
	mov	eax, DWORD PTR _i$[ebp]
	add	eax, 1
	mov	DWORD PTR _i$[ebp], eax

; 489  : 				table[j][k] = i++;

	mov	eax, DWORD PTR _j$[ebp]
	mov	ecx, DWORD PTR _table$[ebp]
	mov	edx, DWORD PTR [ecx+eax*4]
	mov	eax, DWORD PTR _k$[ebp]
	mov	ecx, DWORD PTR _i$[ebp]
	mov	DWORD PTR [edx+eax*4], ecx
	mov	edx, DWORD PTR _i$[ebp]
	add	edx, 1
	mov	DWORD PTR _i$[ebp], edx

; 490  : 
; 491  : 				*sum -= 9;

	mov	eax, DWORD PTR _sum$[ebp]
	mov	ecx, DWORD PTR [eax]
	sub	ecx, 9
	mov	edx, DWORD PTR _sum$[ebp]
	mov	DWORD PTR [edx], ecx

; 492  : 				int result = cub_9(table, 39, i, j, k, n, sum, tab, I, J, K);

	mov	eax, DWORD PTR _K$[ebp]
	push	eax
	mov	ecx, DWORD PTR _J$[ebp]
	push	ecx
	mov	edx, DWORD PTR _I$[ebp]
	push	edx
	mov	eax, DWORD PTR _tab$[ebp]
	push	eax
	mov	ecx, DWORD PTR _sum$[ebp]
	push	ecx
	mov	edx, DWORD PTR _n$[ebp]
	push	edx
	mov	eax, DWORD PTR _k$[ebp]
	push	eax
	mov	ecx, DWORD PTR _j$[ebp]
	push	ecx
	mov	edx, DWORD PTR _i$[ebp]
	push	edx
	push	39					; 00000027H
	mov	eax, DWORD PTR _table$[ebp]
	push	eax
	call	?cub_9@@YAHPAPAHHHHHHPAH0HHH@Z		; cub_9
	add	esp, 44					; 0000002cH
	mov	DWORD PTR _result$55[ebp], eax

; 493  : 				if (result == -1 && table[0][n - 1] != n*n) {

	cmp	DWORD PTR _result$55[ebp], -1
	jne	$LN59@cub_9
	mov	eax, 4
	imul	ecx, eax, 0
	mov	edx, DWORD PTR _table$[ebp]
	mov	eax, DWORD PTR [edx+ecx]
	mov	ecx, DWORD PTR _n$[ebp]
	imul	ecx, DWORD PTR _n$[ebp]
	mov	edx, DWORD PTR _n$[ebp]
	cmp	DWORD PTR [eax+edx*4-4], ecx
	je	$LN59@cub_9

; 494  : 					////c_33(table, &i, &j, &k);
; 495  : 
; 496  : 					i = i - 9;

	mov	eax, DWORD PTR _i$[ebp]
	sub	eax, 9
	mov	DWORD PTR _i$[ebp], eax

; 497  : 					table[j--][k] = 0;

	mov	eax, DWORD PTR _j$[ebp]
	mov	ecx, DWORD PTR _table$[ebp]
	mov	edx, DWORD PTR [ecx+eax*4]
	mov	eax, DWORD PTR _k$[ebp]
	mov	DWORD PTR [edx+eax*4], 0
	mov	ecx, DWORD PTR _j$[ebp]
	sub	ecx, 1
	mov	DWORD PTR _j$[ebp], ecx

; 498  : 					table[j--][k] = 0;

	mov	eax, DWORD PTR _j$[ebp]
	mov	ecx, DWORD PTR _table$[ebp]
	mov	edx, DWORD PTR [ecx+eax*4]
	mov	eax, DWORD PTR _k$[ebp]
	mov	DWORD PTR [edx+eax*4], 0
	mov	ecx, DWORD PTR _j$[ebp]
	sub	ecx, 1
	mov	DWORD PTR _j$[ebp], ecx

; 499  : 					table[j][k--] = 0;

	mov	eax, DWORD PTR _j$[ebp]
	mov	ecx, DWORD PTR _table$[ebp]
	mov	edx, DWORD PTR [ecx+eax*4]
	mov	eax, DWORD PTR _k$[ebp]
	mov	DWORD PTR [edx+eax*4], 0
	mov	ecx, DWORD PTR _k$[ebp]
	sub	ecx, 1
	mov	DWORD PTR _k$[ebp], ecx

; 500  : 					table[j][k--] = 0;

	mov	eax, DWORD PTR _j$[ebp]
	mov	ecx, DWORD PTR _table$[ebp]
	mov	edx, DWORD PTR [ecx+eax*4]
	mov	eax, DWORD PTR _k$[ebp]
	mov	DWORD PTR [edx+eax*4], 0
	mov	ecx, DWORD PTR _k$[ebp]
	sub	ecx, 1
	mov	DWORD PTR _k$[ebp], ecx

; 501  : 					table[j++][k] = 0;

	mov	eax, DWORD PTR _j$[ebp]
	mov	ecx, DWORD PTR _table$[ebp]
	mov	edx, DWORD PTR [ecx+eax*4]
	mov	eax, DWORD PTR _k$[ebp]
	mov	DWORD PTR [edx+eax*4], 0
	mov	ecx, DWORD PTR _j$[ebp]
	add	ecx, 1
	mov	DWORD PTR _j$[ebp], ecx

; 502  : 					table[j][k++] = 0;

	mov	eax, DWORD PTR _j$[ebp]
	mov	ecx, DWORD PTR _table$[ebp]
	mov	edx, DWORD PTR [ecx+eax*4]
	mov	eax, DWORD PTR _k$[ebp]
	mov	DWORD PTR [edx+eax*4], 0
	mov	ecx, DWORD PTR _k$[ebp]
	add	ecx, 1
	mov	DWORD PTR _k$[ebp], ecx

; 503  : 					table[j++][k] = 0;

	mov	eax, DWORD PTR _j$[ebp]
	mov	ecx, DWORD PTR _table$[ebp]
	mov	edx, DWORD PTR [ecx+eax*4]
	mov	eax, DWORD PTR _k$[ebp]
	mov	DWORD PTR [edx+eax*4], 0
	mov	ecx, DWORD PTR _j$[ebp]
	add	ecx, 1
	mov	DWORD PTR _j$[ebp], ecx

; 504  : 					table[j][k--] = 0;

	mov	eax, DWORD PTR _j$[ebp]
	mov	ecx, DWORD PTR _table$[ebp]
	mov	edx, DWORD PTR [ecx+eax*4]
	mov	eax, DWORD PTR _k$[ebp]
	mov	DWORD PTR [edx+eax*4], 0
	mov	ecx, DWORD PTR _k$[ebp]
	sub	ecx, 1
	mov	DWORD PTR _k$[ebp], ecx

; 505  : 
; 506  : 					table[j][k] = 0;

	mov	eax, DWORD PTR _j$[ebp]
	mov	ecx, DWORD PTR _table$[ebp]
	mov	edx, DWORD PTR [ecx+eax*4]
	mov	eax, DWORD PTR _k$[ebp]
	mov	DWORD PTR [edx+eax*4], 0

; 507  : 
; 508  : 					*sum += 9;

	mov	eax, DWORD PTR _sum$[ebp]
	mov	ecx, DWORD PTR [eax]
	add	ecx, 9
	mov	edx, DWORD PTR _sum$[ebp]
	mov	DWORD PTR [edx], ecx

; 509  : 					k--;

	mov	eax, DWORD PTR _k$[ebp]
	sub	eax, 1
	mov	DWORD PTR _k$[ebp], eax

; 510  : 					K--;

	mov	eax, DWORD PTR _K$[ebp]
	sub	eax, 1
	mov	DWORD PTR _K$[ebp], eax
$LN59@cub_9:

; 511  : 				}
; 512  : 			}
; 513  : 			if (table[0][n - 1] != n * n && flag == 19 || flag == 41) {

	mov	eax, 4
	imul	ecx, eax, 0
	mov	edx, DWORD PTR _table$[ebp]
	mov	eax, DWORD PTR [edx+ecx]
	mov	ecx, DWORD PTR _n$[ebp]
	imul	ecx, DWORD PTR _n$[ebp]
	mov	edx, DWORD PTR _n$[ebp]
	cmp	DWORD PTR [eax+edx*4-4], ecx
	je	SHORT $LN63@cub_9
	cmp	DWORD PTR _flag$[ebp], 19		; 00000013H
	je	SHORT $LN62@cub_9
$LN63@cub_9:
	cmp	DWORD PTR _flag$[ebp], 41		; 00000029H
	jne	$LN61@cub_9
$LN62@cub_9:

; 514  : 				if (table[0][n - 1] != n * n && flag == 19 && K != n / 3 - 1 && tab[J][K + 1] - tab[J][K] == 1) {

	mov	eax, 4
	imul	ecx, eax, 0
	mov	edx, DWORD PTR _table$[ebp]
	mov	eax, DWORD PTR [edx+ecx]
	mov	ecx, DWORD PTR _n$[ebp]
	imul	ecx, DWORD PTR _n$[ebp]
	mov	edx, DWORD PTR _n$[ebp]
	cmp	DWORD PTR [eax+edx*4-4], ecx
	je	$LN64@cub_9
	cmp	DWORD PTR _flag$[ebp], 19		; 00000013H
	jne	$LN64@cub_9
	mov	eax, DWORD PTR _n$[ebp]
	cdq
	mov	ecx, 3
	idiv	ecx
	sub	eax, 1
	cmp	DWORD PTR _K$[ebp], eax
	je	$LN64@cub_9
	mov	eax, DWORD PTR _J$[ebp]
	mov	ecx, DWORD PTR _tab$[ebp]
	mov	edx, DWORD PTR [ecx+eax*4]
	mov	eax, DWORD PTR _J$[ebp]
	mov	ecx, DWORD PTR _tab$[ebp]
	mov	eax, DWORD PTR [ecx+eax*4]
	mov	ecx, DWORD PTR _K$[ebp]
	mov	esi, DWORD PTR _K$[ebp]
	mov	edx, DWORD PTR [edx+ecx*4+4]
	sub	edx, DWORD PTR [eax+esi*4]
	cmp	edx, 1
	jne	$LN64@cub_9

; 515  : 					k++;

	mov	eax, DWORD PTR _k$[ebp]
	add	eax, 1
	mov	DWORD PTR _k$[ebp], eax

; 516  : 					K++;

	mov	eax, DWORD PTR _K$[ebp]
	add	eax, 1
	mov	DWORD PTR _K$[ebp], eax

; 517  : 					////c_5(table, &i, &j, &k);
; 518  : 
; 519  : 					table[j--][k] = i++;

	mov	eax, DWORD PTR _j$[ebp]
	mov	ecx, DWORD PTR _table$[ebp]
	mov	edx, DWORD PTR [ecx+eax*4]
	mov	eax, DWORD PTR _k$[ebp]
	mov	ecx, DWORD PTR _i$[ebp]
	mov	DWORD PTR [edx+eax*4], ecx
	mov	edx, DWORD PTR _j$[ebp]
	sub	edx, 1
	mov	DWORD PTR _j$[ebp], edx
	mov	eax, DWORD PTR _i$[ebp]
	add	eax, 1
	mov	DWORD PTR _i$[ebp], eax

; 520  : 					table[j][k++] = i++;

	mov	eax, DWORD PTR _j$[ebp]
	mov	ecx, DWORD PTR _table$[ebp]
	mov	edx, DWORD PTR [ecx+eax*4]
	mov	eax, DWORD PTR _k$[ebp]
	mov	ecx, DWORD PTR _i$[ebp]
	mov	DWORD PTR [edx+eax*4], ecx
	mov	edx, DWORD PTR _k$[ebp]
	add	edx, 1
	mov	DWORD PTR _k$[ebp], edx
	mov	eax, DWORD PTR _i$[ebp]
	add	eax, 1
	mov	DWORD PTR _i$[ebp], eax

; 521  : 					table[j++][k] = i++;

	mov	eax, DWORD PTR _j$[ebp]
	mov	ecx, DWORD PTR _table$[ebp]
	mov	edx, DWORD PTR [ecx+eax*4]
	mov	eax, DWORD PTR _k$[ebp]
	mov	ecx, DWORD PTR _i$[ebp]
	mov	DWORD PTR [edx+eax*4], ecx
	mov	edx, DWORD PTR _j$[ebp]
	add	edx, 1
	mov	DWORD PTR _j$[ebp], edx
	mov	eax, DWORD PTR _i$[ebp]
	add	eax, 1
	mov	DWORD PTR _i$[ebp], eax

; 522  : 					table[j][k++] = i++;

	mov	eax, DWORD PTR _j$[ebp]
	mov	ecx, DWORD PTR _table$[ebp]
	mov	edx, DWORD PTR [ecx+eax*4]
	mov	eax, DWORD PTR _k$[ebp]
	mov	ecx, DWORD PTR _i$[ebp]
	mov	DWORD PTR [edx+eax*4], ecx
	mov	edx, DWORD PTR _k$[ebp]
	add	edx, 1
	mov	DWORD PTR _k$[ebp], edx
	mov	eax, DWORD PTR _i$[ebp]
	add	eax, 1
	mov	DWORD PTR _i$[ebp], eax

; 523  : 					table[j--][k] = i++;

	mov	eax, DWORD PTR _j$[ebp]
	mov	ecx, DWORD PTR _table$[ebp]
	mov	edx, DWORD PTR [ecx+eax*4]
	mov	eax, DWORD PTR _k$[ebp]
	mov	ecx, DWORD PTR _i$[ebp]
	mov	DWORD PTR [edx+eax*4], ecx
	mov	edx, DWORD PTR _j$[ebp]
	sub	edx, 1
	mov	DWORD PTR _j$[ebp], edx
	mov	eax, DWORD PTR _i$[ebp]
	add	eax, 1
	mov	DWORD PTR _i$[ebp], eax

; 524  : 					table[j--][k] = i++;

	mov	eax, DWORD PTR _j$[ebp]
	mov	ecx, DWORD PTR _table$[ebp]
	mov	edx, DWORD PTR [ecx+eax*4]
	mov	eax, DWORD PTR _k$[ebp]
	mov	ecx, DWORD PTR _i$[ebp]
	mov	DWORD PTR [edx+eax*4], ecx
	mov	edx, DWORD PTR _j$[ebp]
	sub	edx, 1
	mov	DWORD PTR _j$[ebp], edx
	mov	eax, DWORD PTR _i$[ebp]
	add	eax, 1
	mov	DWORD PTR _i$[ebp], eax

; 525  : 					table[j][k--] = i++;

	mov	eax, DWORD PTR _j$[ebp]
	mov	ecx, DWORD PTR _table$[ebp]
	mov	edx, DWORD PTR [ecx+eax*4]
	mov	eax, DWORD PTR _k$[ebp]
	mov	ecx, DWORD PTR _i$[ebp]
	mov	DWORD PTR [edx+eax*4], ecx
	mov	edx, DWORD PTR _k$[ebp]
	sub	edx, 1
	mov	DWORD PTR _k$[ebp], edx
	mov	eax, DWORD PTR _i$[ebp]
	add	eax, 1
	mov	DWORD PTR _i$[ebp], eax

; 526  : 					table[j][k--] = i++;

	mov	eax, DWORD PTR _j$[ebp]
	mov	ecx, DWORD PTR _table$[ebp]
	mov	edx, DWORD PTR [ecx+eax*4]
	mov	eax, DWORD PTR _k$[ebp]
	mov	ecx, DWORD PTR _i$[ebp]
	mov	DWORD PTR [edx+eax*4], ecx
	mov	edx, DWORD PTR _k$[ebp]
	sub	edx, 1
	mov	DWORD PTR _k$[ebp], edx
	mov	eax, DWORD PTR _i$[ebp]
	add	eax, 1
	mov	DWORD PTR _i$[ebp], eax

; 527  : 					table[j][k] = i++;

	mov	eax, DWORD PTR _j$[ebp]
	mov	ecx, DWORD PTR _table$[ebp]
	mov	edx, DWORD PTR [ecx+eax*4]
	mov	eax, DWORD PTR _k$[ebp]
	mov	ecx, DWORD PTR _i$[ebp]
	mov	DWORD PTR [edx+eax*4], ecx
	mov	edx, DWORD PTR _i$[ebp]
	add	edx, 1
	mov	DWORD PTR _i$[ebp], edx

; 528  : 
; 529  : 				}

	jmp	$LN65@cub_9
$LN64@cub_9:

; 530  : 				else if (j != 0 && J != 0 && tab[J - 1][K] - tab[J][K] == 1) {

	cmp	DWORD PTR _j$[ebp], 0
	je	$LN65@cub_9
	cmp	DWORD PTR _J$[ebp], 0
	je	$LN65@cub_9
	mov	eax, DWORD PTR _J$[ebp]
	mov	ecx, DWORD PTR _tab$[ebp]
	mov	edx, DWORD PTR [ecx+eax*4-4]
	mov	eax, DWORD PTR _J$[ebp]
	mov	ecx, DWORD PTR _tab$[ebp]
	mov	eax, DWORD PTR [ecx+eax*4]
	mov	ecx, DWORD PTR _K$[ebp]
	mov	esi, DWORD PTR _K$[ebp]
	mov	edx, DWORD PTR [edx+ecx*4]
	sub	edx, DWORD PTR [eax+esi*4]
	cmp	edx, 1
	jne	$LN65@cub_9

; 531  : 					j--;

	mov	eax, DWORD PTR _j$[ebp]
	sub	eax, 1
	mov	DWORD PTR _j$[ebp], eax

; 532  : 					J--;

	mov	eax, DWORD PTR _J$[ebp]
	sub	eax, 1
	mov	DWORD PTR _J$[ebp], eax

; 533  : 					////c_5(table, &i, &j, &k);
; 534  : 
; 535  : 					table[j--][k] = i++;

	mov	eax, DWORD PTR _j$[ebp]
	mov	ecx, DWORD PTR _table$[ebp]
	mov	edx, DWORD PTR [ecx+eax*4]
	mov	eax, DWORD PTR _k$[ebp]
	mov	ecx, DWORD PTR _i$[ebp]
	mov	DWORD PTR [edx+eax*4], ecx
	mov	edx, DWORD PTR _j$[ebp]
	sub	edx, 1
	mov	DWORD PTR _j$[ebp], edx
	mov	eax, DWORD PTR _i$[ebp]
	add	eax, 1
	mov	DWORD PTR _i$[ebp], eax

; 536  : 					table[j][k++] = i++;

	mov	eax, DWORD PTR _j$[ebp]
	mov	ecx, DWORD PTR _table$[ebp]
	mov	edx, DWORD PTR [ecx+eax*4]
	mov	eax, DWORD PTR _k$[ebp]
	mov	ecx, DWORD PTR _i$[ebp]
	mov	DWORD PTR [edx+eax*4], ecx
	mov	edx, DWORD PTR _k$[ebp]
	add	edx, 1
	mov	DWORD PTR _k$[ebp], edx
	mov	eax, DWORD PTR _i$[ebp]
	add	eax, 1
	mov	DWORD PTR _i$[ebp], eax

; 537  : 					table[j++][k] = i++;

	mov	eax, DWORD PTR _j$[ebp]
	mov	ecx, DWORD PTR _table$[ebp]
	mov	edx, DWORD PTR [ecx+eax*4]
	mov	eax, DWORD PTR _k$[ebp]
	mov	ecx, DWORD PTR _i$[ebp]
	mov	DWORD PTR [edx+eax*4], ecx
	mov	edx, DWORD PTR _j$[ebp]
	add	edx, 1
	mov	DWORD PTR _j$[ebp], edx
	mov	eax, DWORD PTR _i$[ebp]
	add	eax, 1
	mov	DWORD PTR _i$[ebp], eax

; 538  : 					table[j][k++] = i++;

	mov	eax, DWORD PTR _j$[ebp]
	mov	ecx, DWORD PTR _table$[ebp]
	mov	edx, DWORD PTR [ecx+eax*4]
	mov	eax, DWORD PTR _k$[ebp]
	mov	ecx, DWORD PTR _i$[ebp]
	mov	DWORD PTR [edx+eax*4], ecx
	mov	edx, DWORD PTR _k$[ebp]
	add	edx, 1
	mov	DWORD PTR _k$[ebp], edx
	mov	eax, DWORD PTR _i$[ebp]
	add	eax, 1
	mov	DWORD PTR _i$[ebp], eax

; 539  : 					table[j--][k] = i++;

	mov	eax, DWORD PTR _j$[ebp]
	mov	ecx, DWORD PTR _table$[ebp]
	mov	edx, DWORD PTR [ecx+eax*4]
	mov	eax, DWORD PTR _k$[ebp]
	mov	ecx, DWORD PTR _i$[ebp]
	mov	DWORD PTR [edx+eax*4], ecx
	mov	edx, DWORD PTR _j$[ebp]
	sub	edx, 1
	mov	DWORD PTR _j$[ebp], edx
	mov	eax, DWORD PTR _i$[ebp]
	add	eax, 1
	mov	DWORD PTR _i$[ebp], eax

; 540  : 					table[j--][k] = i++;

	mov	eax, DWORD PTR _j$[ebp]
	mov	ecx, DWORD PTR _table$[ebp]
	mov	edx, DWORD PTR [ecx+eax*4]
	mov	eax, DWORD PTR _k$[ebp]
	mov	ecx, DWORD PTR _i$[ebp]
	mov	DWORD PTR [edx+eax*4], ecx
	mov	edx, DWORD PTR _j$[ebp]
	sub	edx, 1
	mov	DWORD PTR _j$[ebp], edx
	mov	eax, DWORD PTR _i$[ebp]
	add	eax, 1
	mov	DWORD PTR _i$[ebp], eax

; 541  : 					table[j][k--] = i++;

	mov	eax, DWORD PTR _j$[ebp]
	mov	ecx, DWORD PTR _table$[ebp]
	mov	edx, DWORD PTR [ecx+eax*4]
	mov	eax, DWORD PTR _k$[ebp]
	mov	ecx, DWORD PTR _i$[ebp]
	mov	DWORD PTR [edx+eax*4], ecx
	mov	edx, DWORD PTR _k$[ebp]
	sub	edx, 1
	mov	DWORD PTR _k$[ebp], edx
	mov	eax, DWORD PTR _i$[ebp]
	add	eax, 1
	mov	DWORD PTR _i$[ebp], eax

; 542  : 					table[j][k--] = i++;

	mov	eax, DWORD PTR _j$[ebp]
	mov	ecx, DWORD PTR _table$[ebp]
	mov	edx, DWORD PTR [ecx+eax*4]
	mov	eax, DWORD PTR _k$[ebp]
	mov	ecx, DWORD PTR _i$[ebp]
	mov	DWORD PTR [edx+eax*4], ecx
	mov	edx, DWORD PTR _k$[ebp]
	sub	edx, 1
	mov	DWORD PTR _k$[ebp], edx
	mov	eax, DWORD PTR _i$[ebp]
	add	eax, 1
	mov	DWORD PTR _i$[ebp], eax

; 543  : 					table[j][k] = i++;

	mov	eax, DWORD PTR _j$[ebp]
	mov	ecx, DWORD PTR _table$[ebp]
	mov	edx, DWORD PTR [ecx+eax*4]
	mov	eax, DWORD PTR _k$[ebp]
	mov	ecx, DWORD PTR _i$[ebp]
	mov	DWORD PTR [edx+eax*4], ecx
	mov	edx, DWORD PTR _i$[ebp]
	add	edx, 1
	mov	DWORD PTR _i$[ebp], edx
$LN65@cub_9:

; 544  : 
; 545  : 				}
; 546  : 				*sum -= 9;

	mov	eax, DWORD PTR _sum$[ebp]
	mov	ecx, DWORD PTR [eax]
	sub	ecx, 9
	mov	edx, DWORD PTR _sum$[ebp]
	mov	DWORD PTR [edx], ecx

; 547  : 				f = flag;

	mov	eax, DWORD PTR _flag$[ebp]
	mov	DWORD PTR _f$[ebp], eax

; 548  : 				int result = cub_9(table, 11, i, j, k, n, sum, tab, I, J, K);

	mov	eax, DWORD PTR _K$[ebp]
	push	eax
	mov	ecx, DWORD PTR _J$[ebp]
	push	ecx
	mov	edx, DWORD PTR _I$[ebp]
	push	edx
	mov	eax, DWORD PTR _tab$[ebp]
	push	eax
	mov	ecx, DWORD PTR _sum$[ebp]
	push	ecx
	mov	edx, DWORD PTR _n$[ebp]
	push	edx
	mov	eax, DWORD PTR _k$[ebp]
	push	eax
	mov	ecx, DWORD PTR _j$[ebp]
	push	ecx
	mov	edx, DWORD PTR _i$[ebp]
	push	edx
	push	11					; 0000000bH
	mov	eax, DWORD PTR _table$[ebp]
	push	eax
	call	?cub_9@@YAHPAPAHHHHHHPAH0HHH@Z		; cub_9
	add	esp, 44					; 0000002cH
	mov	DWORD PTR _result$54[ebp], eax

; 549  : 				if (result == -1 && table[0][n - 1] != n*n) {

	cmp	DWORD PTR _result$54[ebp], -1
	jne	$LN61@cub_9
	mov	eax, 4
	imul	ecx, eax, 0
	mov	edx, DWORD PTR _table$[ebp]
	mov	eax, DWORD PTR [edx+ecx]
	mov	ecx, DWORD PTR _n$[ebp]
	imul	ecx, DWORD PTR _n$[ebp]
	mov	edx, DWORD PTR _n$[ebp]
	cmp	DWORD PTR [eax+edx*4-4], ecx
	je	$LN61@cub_9

; 550  : 					////c_55(table, &i, &j, &k);
; 551  : 
; 552  : 					i = i - 9;

	mov	eax, DWORD PTR _i$[ebp]
	sub	eax, 9
	mov	DWORD PTR _i$[ebp], eax

; 553  : 
; 554  : 					table[j][k++] = 0;

	mov	eax, DWORD PTR _j$[ebp]
	mov	ecx, DWORD PTR _table$[ebp]
	mov	edx, DWORD PTR [ecx+eax*4]
	mov	eax, DWORD PTR _k$[ebp]
	mov	DWORD PTR [edx+eax*4], 0
	mov	ecx, DWORD PTR _k$[ebp]
	add	ecx, 1
	mov	DWORD PTR _k$[ebp], ecx

; 555  : 					table[j][k++] = 0;

	mov	eax, DWORD PTR _j$[ebp]
	mov	ecx, DWORD PTR _table$[ebp]
	mov	edx, DWORD PTR [ecx+eax*4]
	mov	eax, DWORD PTR _k$[ebp]
	mov	DWORD PTR [edx+eax*4], 0
	mov	ecx, DWORD PTR _k$[ebp]
	add	ecx, 1
	mov	DWORD PTR _k$[ebp], ecx

; 556  : 					table[j++][k] = 0;

	mov	eax, DWORD PTR _j$[ebp]
	mov	ecx, DWORD PTR _table$[ebp]
	mov	edx, DWORD PTR [ecx+eax*4]
	mov	eax, DWORD PTR _k$[ebp]
	mov	DWORD PTR [edx+eax*4], 0
	mov	ecx, DWORD PTR _j$[ebp]
	add	ecx, 1
	mov	DWORD PTR _j$[ebp], ecx

; 557  : 					table[j++][k] = 0;

	mov	eax, DWORD PTR _j$[ebp]
	mov	ecx, DWORD PTR _table$[ebp]
	mov	edx, DWORD PTR [ecx+eax*4]
	mov	eax, DWORD PTR _k$[ebp]
	mov	DWORD PTR [edx+eax*4], 0
	mov	ecx, DWORD PTR _j$[ebp]
	add	ecx, 1
	mov	DWORD PTR _j$[ebp], ecx

; 558  : 					table[j][k--] = 0;

	mov	eax, DWORD PTR _j$[ebp]
	mov	ecx, DWORD PTR _table$[ebp]
	mov	edx, DWORD PTR [ecx+eax*4]
	mov	eax, DWORD PTR _k$[ebp]
	mov	DWORD PTR [edx+eax*4], 0
	mov	ecx, DWORD PTR _k$[ebp]
	sub	ecx, 1
	mov	DWORD PTR _k$[ebp], ecx

; 559  : 					table[j--][k] = 0;

	mov	eax, DWORD PTR _j$[ebp]
	mov	ecx, DWORD PTR _table$[ebp]
	mov	edx, DWORD PTR [ecx+eax*4]
	mov	eax, DWORD PTR _k$[ebp]
	mov	DWORD PTR [edx+eax*4], 0
	mov	ecx, DWORD PTR _j$[ebp]
	sub	ecx, 1
	mov	DWORD PTR _j$[ebp], ecx

; 560  : 					table[j][k--] = 0;

	mov	eax, DWORD PTR _j$[ebp]
	mov	ecx, DWORD PTR _table$[ebp]
	mov	edx, DWORD PTR [ecx+eax*4]
	mov	eax, DWORD PTR _k$[ebp]
	mov	DWORD PTR [edx+eax*4], 0
	mov	ecx, DWORD PTR _k$[ebp]
	sub	ecx, 1
	mov	DWORD PTR _k$[ebp], ecx

; 561  : 					table[j++][k] = 0;

	mov	eax, DWORD PTR _j$[ebp]
	mov	ecx, DWORD PTR _table$[ebp]
	mov	edx, DWORD PTR [ecx+eax*4]
	mov	eax, DWORD PTR _k$[ebp]
	mov	DWORD PTR [edx+eax*4], 0
	mov	ecx, DWORD PTR _j$[ebp]
	add	ecx, 1
	mov	DWORD PTR _j$[ebp], ecx

; 562  : 					table[j][k] = 0;

	mov	eax, DWORD PTR _j$[ebp]
	mov	ecx, DWORD PTR _table$[ebp]
	mov	edx, DWORD PTR [ecx+eax*4]
	mov	eax, DWORD PTR _k$[ebp]
	mov	DWORD PTR [edx+eax*4], 0

; 563  : 
; 564  : 					*sum += 9;

	mov	eax, DWORD PTR _sum$[ebp]
	mov	ecx, DWORD PTR [eax]
	add	ecx, 9
	mov	edx, DWORD PTR _sum$[ebp]
	mov	DWORD PTR [edx], ecx

; 565  : 					if (f == 19) {

	cmp	DWORD PTR _f$[ebp], 19			; 00000013H
	jne	SHORT $LN68@cub_9

; 566  : 						K--;

	mov	eax, DWORD PTR _K$[ebp]
	sub	eax, 1
	mov	DWORD PTR _K$[ebp], eax

; 567  : 						k--;

	mov	eax, DWORD PTR _k$[ebp]
	sub	eax, 1
	mov	DWORD PTR _k$[ebp], eax

; 568  : 					}

	jmp	SHORT $LN61@cub_9
$LN68@cub_9:

; 569  : 					else {
; 570  : 						J++;

	mov	eax, DWORD PTR _J$[ebp]
	add	eax, 1
	mov	DWORD PTR _J$[ebp], eax

; 571  : 						j++;

	mov	eax, DWORD PTR _j$[ebp]
	add	eax, 1
	mov	DWORD PTR _j$[ebp], eax
$LN61@cub_9:

; 572  : 					}
; 573  : 				}
; 574  : 			}
; 575  : 			if (table[0][n - 1] != n * n && flag == 11 && J != 0 && tab[J - 1][K] - tab[J][K] == 1) {

	mov	eax, 4
	imul	ecx, eax, 0
	mov	edx, DWORD PTR _table$[ebp]
	mov	eax, DWORD PTR [edx+ecx]
	mov	ecx, DWORD PTR _n$[ebp]
	imul	ecx, DWORD PTR _n$[ebp]
	mov	edx, DWORD PTR _n$[ebp]
	cmp	DWORD PTR [eax+edx*4-4], ecx
	je	$LN70@cub_9
	cmp	DWORD PTR _flag$[ebp], 11		; 0000000bH
	jne	$LN70@cub_9
	cmp	DWORD PTR _J$[ebp], 0
	je	$LN70@cub_9
	mov	eax, DWORD PTR _J$[ebp]
	mov	ecx, DWORD PTR _tab$[ebp]
	mov	edx, DWORD PTR [ecx+eax*4-4]
	mov	eax, DWORD PTR _J$[ebp]
	mov	ecx, DWORD PTR _tab$[ebp]
	mov	eax, DWORD PTR [ecx+eax*4]
	mov	ecx, DWORD PTR _K$[ebp]
	mov	esi, DWORD PTR _K$[ebp]
	mov	edx, DWORD PTR [edx+ecx*4]
	sub	edx, DWORD PTR [eax+esi*4]
	cmp	edx, 1
	jne	$LN70@cub_9

; 576  : 				j--;

	mov	eax, DWORD PTR _j$[ebp]
	sub	eax, 1
	mov	DWORD PTR _j$[ebp], eax

; 577  : 				J--;

	mov	eax, DWORD PTR _J$[ebp]
	sub	eax, 1
	mov	DWORD PTR _J$[ebp], eax

; 578  : 				////c_5(table, &i, &j, &k);
; 579  : 
; 580  : 				table[j--][k] = i++;

	mov	eax, DWORD PTR _j$[ebp]
	mov	ecx, DWORD PTR _table$[ebp]
	mov	edx, DWORD PTR [ecx+eax*4]
	mov	eax, DWORD PTR _k$[ebp]
	mov	ecx, DWORD PTR _i$[ebp]
	mov	DWORD PTR [edx+eax*4], ecx
	mov	edx, DWORD PTR _j$[ebp]
	sub	edx, 1
	mov	DWORD PTR _j$[ebp], edx
	mov	eax, DWORD PTR _i$[ebp]
	add	eax, 1
	mov	DWORD PTR _i$[ebp], eax

; 581  : 				table[j][k++] = i++;

	mov	eax, DWORD PTR _j$[ebp]
	mov	ecx, DWORD PTR _table$[ebp]
	mov	edx, DWORD PTR [ecx+eax*4]
	mov	eax, DWORD PTR _k$[ebp]
	mov	ecx, DWORD PTR _i$[ebp]
	mov	DWORD PTR [edx+eax*4], ecx
	mov	edx, DWORD PTR _k$[ebp]
	add	edx, 1
	mov	DWORD PTR _k$[ebp], edx
	mov	eax, DWORD PTR _i$[ebp]
	add	eax, 1
	mov	DWORD PTR _i$[ebp], eax

; 582  : 				table[j++][k] = i++;

	mov	eax, DWORD PTR _j$[ebp]
	mov	ecx, DWORD PTR _table$[ebp]
	mov	edx, DWORD PTR [ecx+eax*4]
	mov	eax, DWORD PTR _k$[ebp]
	mov	ecx, DWORD PTR _i$[ebp]
	mov	DWORD PTR [edx+eax*4], ecx
	mov	edx, DWORD PTR _j$[ebp]
	add	edx, 1
	mov	DWORD PTR _j$[ebp], edx
	mov	eax, DWORD PTR _i$[ebp]
	add	eax, 1
	mov	DWORD PTR _i$[ebp], eax

; 583  : 				table[j][k++] = i++;

	mov	eax, DWORD PTR _j$[ebp]
	mov	ecx, DWORD PTR _table$[ebp]
	mov	edx, DWORD PTR [ecx+eax*4]
	mov	eax, DWORD PTR _k$[ebp]
	mov	ecx, DWORD PTR _i$[ebp]
	mov	DWORD PTR [edx+eax*4], ecx
	mov	edx, DWORD PTR _k$[ebp]
	add	edx, 1
	mov	DWORD PTR _k$[ebp], edx
	mov	eax, DWORD PTR _i$[ebp]
	add	eax, 1
	mov	DWORD PTR _i$[ebp], eax

; 584  : 				table[j--][k] = i++;

	mov	eax, DWORD PTR _j$[ebp]
	mov	ecx, DWORD PTR _table$[ebp]
	mov	edx, DWORD PTR [ecx+eax*4]
	mov	eax, DWORD PTR _k$[ebp]
	mov	ecx, DWORD PTR _i$[ebp]
	mov	DWORD PTR [edx+eax*4], ecx
	mov	edx, DWORD PTR _j$[ebp]
	sub	edx, 1
	mov	DWORD PTR _j$[ebp], edx
	mov	eax, DWORD PTR _i$[ebp]
	add	eax, 1
	mov	DWORD PTR _i$[ebp], eax

; 585  : 				table[j--][k] = i++;

	mov	eax, DWORD PTR _j$[ebp]
	mov	ecx, DWORD PTR _table$[ebp]
	mov	edx, DWORD PTR [ecx+eax*4]
	mov	eax, DWORD PTR _k$[ebp]
	mov	ecx, DWORD PTR _i$[ebp]
	mov	DWORD PTR [edx+eax*4], ecx
	mov	edx, DWORD PTR _j$[ebp]
	sub	edx, 1
	mov	DWORD PTR _j$[ebp], edx
	mov	eax, DWORD PTR _i$[ebp]
	add	eax, 1
	mov	DWORD PTR _i$[ebp], eax

; 586  : 				table[j][k--] = i++;

	mov	eax, DWORD PTR _j$[ebp]
	mov	ecx, DWORD PTR _table$[ebp]
	mov	edx, DWORD PTR [ecx+eax*4]
	mov	eax, DWORD PTR _k$[ebp]
	mov	ecx, DWORD PTR _i$[ebp]
	mov	DWORD PTR [edx+eax*4], ecx
	mov	edx, DWORD PTR _k$[ebp]
	sub	edx, 1
	mov	DWORD PTR _k$[ebp], edx
	mov	eax, DWORD PTR _i$[ebp]
	add	eax, 1
	mov	DWORD PTR _i$[ebp], eax

; 587  : 				table[j][k--] = i++;

	mov	eax, DWORD PTR _j$[ebp]
	mov	ecx, DWORD PTR _table$[ebp]
	mov	edx, DWORD PTR [ecx+eax*4]
	mov	eax, DWORD PTR _k$[ebp]
	mov	ecx, DWORD PTR _i$[ebp]
	mov	DWORD PTR [edx+eax*4], ecx
	mov	edx, DWORD PTR _k$[ebp]
	sub	edx, 1
	mov	DWORD PTR _k$[ebp], edx
	mov	eax, DWORD PTR _i$[ebp]
	add	eax, 1
	mov	DWORD PTR _i$[ebp], eax

; 588  : 				table[j][k] = i++;

	mov	eax, DWORD PTR _j$[ebp]
	mov	ecx, DWORD PTR _table$[ebp]
	mov	edx, DWORD PTR [ecx+eax*4]
	mov	eax, DWORD PTR _k$[ebp]
	mov	ecx, DWORD PTR _i$[ebp]
	mov	DWORD PTR [edx+eax*4], ecx
	mov	edx, DWORD PTR _i$[ebp]
	add	edx, 1
	mov	DWORD PTR _i$[ebp], edx

; 589  : 
; 590  : 				*sum -= 9;

	mov	eax, DWORD PTR _sum$[ebp]
	mov	ecx, DWORD PTR [eax]
	sub	ecx, 9
	mov	edx, DWORD PTR _sum$[ebp]
	mov	DWORD PTR [edx], ecx

; 591  : 				int result = cub_9(table, 21, i, j, k, n, sum, tab, I, J, K);

	mov	eax, DWORD PTR _K$[ebp]
	push	eax
	mov	ecx, DWORD PTR _J$[ebp]
	push	ecx
	mov	edx, DWORD PTR _I$[ebp]
	push	edx
	mov	eax, DWORD PTR _tab$[ebp]
	push	eax
	mov	ecx, DWORD PTR _sum$[ebp]
	push	ecx
	mov	edx, DWORD PTR _n$[ebp]
	push	edx
	mov	eax, DWORD PTR _k$[ebp]
	push	eax
	mov	ecx, DWORD PTR _j$[ebp]
	push	ecx
	mov	edx, DWORD PTR _i$[ebp]
	push	edx
	push	21					; 00000015H
	mov	eax, DWORD PTR _table$[ebp]
	push	eax
	call	?cub_9@@YAHPAPAHHHHHHPAH0HHH@Z		; cub_9
	add	esp, 44					; 0000002cH
	mov	DWORD PTR _result$53[ebp], eax

; 592  : 				if (result == -1 && table[0][n - 1] != n*n) {

	cmp	DWORD PTR _result$53[ebp], -1
	jne	$LN70@cub_9
	mov	eax, 4
	imul	ecx, eax, 0
	mov	edx, DWORD PTR _table$[ebp]
	mov	eax, DWORD PTR [edx+ecx]
	mov	ecx, DWORD PTR _n$[ebp]
	imul	ecx, DWORD PTR _n$[ebp]
	mov	edx, DWORD PTR _n$[ebp]
	cmp	DWORD PTR [eax+edx*4-4], ecx
	je	$LN70@cub_9

; 593  : 					////c_55(table, &i, &j, &k);
; 594  : 
; 595  : 					i = i - 9;

	mov	eax, DWORD PTR _i$[ebp]
	sub	eax, 9
	mov	DWORD PTR _i$[ebp], eax

; 596  : 
; 597  : 					table[j][k++] = 0;

	mov	eax, DWORD PTR _j$[ebp]
	mov	ecx, DWORD PTR _table$[ebp]
	mov	edx, DWORD PTR [ecx+eax*4]
	mov	eax, DWORD PTR _k$[ebp]
	mov	DWORD PTR [edx+eax*4], 0
	mov	ecx, DWORD PTR _k$[ebp]
	add	ecx, 1
	mov	DWORD PTR _k$[ebp], ecx

; 598  : 					table[j][k++] = 0;

	mov	eax, DWORD PTR _j$[ebp]
	mov	ecx, DWORD PTR _table$[ebp]
	mov	edx, DWORD PTR [ecx+eax*4]
	mov	eax, DWORD PTR _k$[ebp]
	mov	DWORD PTR [edx+eax*4], 0
	mov	ecx, DWORD PTR _k$[ebp]
	add	ecx, 1
	mov	DWORD PTR _k$[ebp], ecx

; 599  : 					table[j++][k] = 0;

	mov	eax, DWORD PTR _j$[ebp]
	mov	ecx, DWORD PTR _table$[ebp]
	mov	edx, DWORD PTR [ecx+eax*4]
	mov	eax, DWORD PTR _k$[ebp]
	mov	DWORD PTR [edx+eax*4], 0
	mov	ecx, DWORD PTR _j$[ebp]
	add	ecx, 1
	mov	DWORD PTR _j$[ebp], ecx

; 600  : 					table[j++][k] = 0;

	mov	eax, DWORD PTR _j$[ebp]
	mov	ecx, DWORD PTR _table$[ebp]
	mov	edx, DWORD PTR [ecx+eax*4]
	mov	eax, DWORD PTR _k$[ebp]
	mov	DWORD PTR [edx+eax*4], 0
	mov	ecx, DWORD PTR _j$[ebp]
	add	ecx, 1
	mov	DWORD PTR _j$[ebp], ecx

; 601  : 					table[j][k--] = 0;

	mov	eax, DWORD PTR _j$[ebp]
	mov	ecx, DWORD PTR _table$[ebp]
	mov	edx, DWORD PTR [ecx+eax*4]
	mov	eax, DWORD PTR _k$[ebp]
	mov	DWORD PTR [edx+eax*4], 0
	mov	ecx, DWORD PTR _k$[ebp]
	sub	ecx, 1
	mov	DWORD PTR _k$[ebp], ecx

; 602  : 					table[j--][k] = 0;

	mov	eax, DWORD PTR _j$[ebp]
	mov	ecx, DWORD PTR _table$[ebp]
	mov	edx, DWORD PTR [ecx+eax*4]
	mov	eax, DWORD PTR _k$[ebp]
	mov	DWORD PTR [edx+eax*4], 0
	mov	ecx, DWORD PTR _j$[ebp]
	sub	ecx, 1
	mov	DWORD PTR _j$[ebp], ecx

; 603  : 					table[j][k--] = 0;

	mov	eax, DWORD PTR _j$[ebp]
	mov	ecx, DWORD PTR _table$[ebp]
	mov	edx, DWORD PTR [ecx+eax*4]
	mov	eax, DWORD PTR _k$[ebp]
	mov	DWORD PTR [edx+eax*4], 0
	mov	ecx, DWORD PTR _k$[ebp]
	sub	ecx, 1
	mov	DWORD PTR _k$[ebp], ecx

; 604  : 					table[j++][k] = 0;

	mov	eax, DWORD PTR _j$[ebp]
	mov	ecx, DWORD PTR _table$[ebp]
	mov	edx, DWORD PTR [ecx+eax*4]
	mov	eax, DWORD PTR _k$[ebp]
	mov	DWORD PTR [edx+eax*4], 0
	mov	ecx, DWORD PTR _j$[ebp]
	add	ecx, 1
	mov	DWORD PTR _j$[ebp], ecx

; 605  : 					table[j][k] = 0;

	mov	eax, DWORD PTR _j$[ebp]
	mov	ecx, DWORD PTR _table$[ebp]
	mov	edx, DWORD PTR [ecx+eax*4]
	mov	eax, DWORD PTR _k$[ebp]
	mov	DWORD PTR [edx+eax*4], 0

; 606  : 
; 607  : 					j++;

	mov	eax, DWORD PTR _j$[ebp]
	add	eax, 1
	mov	DWORD PTR _j$[ebp], eax

; 608  : 					J++;

	mov	eax, DWORD PTR _J$[ebp]
	add	eax, 1
	mov	DWORD PTR _J$[ebp], eax

; 609  : 					*sum += 9;

	mov	eax, DWORD PTR _sum$[ebp]
	mov	ecx, DWORD PTR [eax]
	add	ecx, 9
	mov	edx, DWORD PTR _sum$[ebp]
	mov	DWORD PTR [edx], ecx
$LN70@cub_9:

; 610  : 				}
; 611  : 			}
; 612  : 			if (table[0][n - 1] != n * n && flag == 43 || flag == 37) {

	mov	eax, 4
	imul	ecx, eax, 0
	mov	edx, DWORD PTR _table$[ebp]
	mov	eax, DWORD PTR [edx+ecx]
	mov	ecx, DWORD PTR _n$[ebp]
	imul	ecx, DWORD PTR _n$[ebp]
	mov	edx, DWORD PTR _n$[ebp]
	cmp	DWORD PTR [eax+edx*4-4], ecx
	je	SHORT $LN74@cub_9
	cmp	DWORD PTR _flag$[ebp], 43		; 0000002bH
	je	SHORT $LN73@cub_9
$LN74@cub_9:
	cmp	DWORD PTR _flag$[ebp], 37		; 00000025H
	jne	$LN72@cub_9
$LN73@cub_9:

; 613  : 				if (table[0][n - 1] != n * n && flag == 37 && K != 0 && tab[J][K - 1] - tab[J][K] == 1) {

	mov	eax, 4
	imul	ecx, eax, 0
	mov	edx, DWORD PTR _table$[ebp]
	mov	eax, DWORD PTR [edx+ecx]
	mov	ecx, DWORD PTR _n$[ebp]
	imul	ecx, DWORD PTR _n$[ebp]
	mov	edx, DWORD PTR _n$[ebp]
	cmp	DWORD PTR [eax+edx*4-4], ecx
	je	$LN75@cub_9
	cmp	DWORD PTR _flag$[ebp], 37		; 00000025H
	jne	$LN75@cub_9
	cmp	DWORD PTR _K$[ebp], 0
	je	$LN75@cub_9
	mov	eax, DWORD PTR _J$[ebp]
	mov	ecx, DWORD PTR _tab$[ebp]
	mov	edx, DWORD PTR [ecx+eax*4]
	mov	eax, DWORD PTR _J$[ebp]
	mov	ecx, DWORD PTR _tab$[ebp]
	mov	eax, DWORD PTR [ecx+eax*4]
	mov	ecx, DWORD PTR _K$[ebp]
	mov	esi, DWORD PTR _K$[ebp]
	mov	edx, DWORD PTR [edx+ecx*4-4]
	sub	edx, DWORD PTR [eax+esi*4]
	cmp	edx, 1
	jne	$LN75@cub_9

; 614  : 					k--;

	mov	eax, DWORD PTR _k$[ebp]
	sub	eax, 1
	mov	DWORD PTR _k$[ebp], eax

; 615  : 					K--;

	mov	eax, DWORD PTR _K$[ebp]
	sub	eax, 1
	mov	DWORD PTR _K$[ebp], eax

; 616  : 					////c_6(table, &i, &j, &k);
; 617  : 
; 618  : 					table[j--][k] = i++;

	mov	eax, DWORD PTR _j$[ebp]
	mov	ecx, DWORD PTR _table$[ebp]
	mov	edx, DWORD PTR [ecx+eax*4]
	mov	eax, DWORD PTR _k$[ebp]
	mov	ecx, DWORD PTR _i$[ebp]
	mov	DWORD PTR [edx+eax*4], ecx
	mov	edx, DWORD PTR _j$[ebp]
	sub	edx, 1
	mov	DWORD PTR _j$[ebp], edx
	mov	eax, DWORD PTR _i$[ebp]
	add	eax, 1
	mov	DWORD PTR _i$[ebp], eax

; 619  : 					table[j][k--] = i++;

	mov	eax, DWORD PTR _j$[ebp]
	mov	ecx, DWORD PTR _table$[ebp]
	mov	edx, DWORD PTR [ecx+eax*4]
	mov	eax, DWORD PTR _k$[ebp]
	mov	ecx, DWORD PTR _i$[ebp]
	mov	DWORD PTR [edx+eax*4], ecx
	mov	edx, DWORD PTR _k$[ebp]
	sub	edx, 1
	mov	DWORD PTR _k$[ebp], edx
	mov	eax, DWORD PTR _i$[ebp]
	add	eax, 1
	mov	DWORD PTR _i$[ebp], eax

; 620  : 					table[j++][k] = i++;

	mov	eax, DWORD PTR _j$[ebp]
	mov	ecx, DWORD PTR _table$[ebp]
	mov	edx, DWORD PTR [ecx+eax*4]
	mov	eax, DWORD PTR _k$[ebp]
	mov	ecx, DWORD PTR _i$[ebp]
	mov	DWORD PTR [edx+eax*4], ecx
	mov	edx, DWORD PTR _j$[ebp]
	add	edx, 1
	mov	DWORD PTR _j$[ebp], edx
	mov	eax, DWORD PTR _i$[ebp]
	add	eax, 1
	mov	DWORD PTR _i$[ebp], eax

; 621  : 					table[j][k--] = i++;

	mov	eax, DWORD PTR _j$[ebp]
	mov	ecx, DWORD PTR _table$[ebp]
	mov	edx, DWORD PTR [ecx+eax*4]
	mov	eax, DWORD PTR _k$[ebp]
	mov	ecx, DWORD PTR _i$[ebp]
	mov	DWORD PTR [edx+eax*4], ecx
	mov	edx, DWORD PTR _k$[ebp]
	sub	edx, 1
	mov	DWORD PTR _k$[ebp], edx
	mov	eax, DWORD PTR _i$[ebp]
	add	eax, 1
	mov	DWORD PTR _i$[ebp], eax

; 622  : 					table[j--][k] = i++;

	mov	eax, DWORD PTR _j$[ebp]
	mov	ecx, DWORD PTR _table$[ebp]
	mov	edx, DWORD PTR [ecx+eax*4]
	mov	eax, DWORD PTR _k$[ebp]
	mov	ecx, DWORD PTR _i$[ebp]
	mov	DWORD PTR [edx+eax*4], ecx
	mov	edx, DWORD PTR _j$[ebp]
	sub	edx, 1
	mov	DWORD PTR _j$[ebp], edx
	mov	eax, DWORD PTR _i$[ebp]
	add	eax, 1
	mov	DWORD PTR _i$[ebp], eax

; 623  : 					table[j--][k] = i++;

	mov	eax, DWORD PTR _j$[ebp]
	mov	ecx, DWORD PTR _table$[ebp]
	mov	edx, DWORD PTR [ecx+eax*4]
	mov	eax, DWORD PTR _k$[ebp]
	mov	ecx, DWORD PTR _i$[ebp]
	mov	DWORD PTR [edx+eax*4], ecx
	mov	edx, DWORD PTR _j$[ebp]
	sub	edx, 1
	mov	DWORD PTR _j$[ebp], edx
	mov	eax, DWORD PTR _i$[ebp]
	add	eax, 1
	mov	DWORD PTR _i$[ebp], eax

; 624  : 					table[j][k++] = i++;

	mov	eax, DWORD PTR _j$[ebp]
	mov	ecx, DWORD PTR _table$[ebp]
	mov	edx, DWORD PTR [ecx+eax*4]
	mov	eax, DWORD PTR _k$[ebp]
	mov	ecx, DWORD PTR _i$[ebp]
	mov	DWORD PTR [edx+eax*4], ecx
	mov	edx, DWORD PTR _k$[ebp]
	add	edx, 1
	mov	DWORD PTR _k$[ebp], edx
	mov	eax, DWORD PTR _i$[ebp]
	add	eax, 1
	mov	DWORD PTR _i$[ebp], eax

; 625  : 					table[j][k++] = i++;

	mov	eax, DWORD PTR _j$[ebp]
	mov	ecx, DWORD PTR _table$[ebp]
	mov	edx, DWORD PTR [ecx+eax*4]
	mov	eax, DWORD PTR _k$[ebp]
	mov	ecx, DWORD PTR _i$[ebp]
	mov	DWORD PTR [edx+eax*4], ecx
	mov	edx, DWORD PTR _k$[ebp]
	add	edx, 1
	mov	DWORD PTR _k$[ebp], edx
	mov	eax, DWORD PTR _i$[ebp]
	add	eax, 1
	mov	DWORD PTR _i$[ebp], eax

; 626  : 					table[j][k] = i++;

	mov	eax, DWORD PTR _j$[ebp]
	mov	ecx, DWORD PTR _table$[ebp]
	mov	edx, DWORD PTR [ecx+eax*4]
	mov	eax, DWORD PTR _k$[ebp]
	mov	ecx, DWORD PTR _i$[ebp]
	mov	DWORD PTR [edx+eax*4], ecx
	mov	edx, DWORD PTR _i$[ebp]
	add	edx, 1
	mov	DWORD PTR _i$[ebp], edx

; 627  : 
; 628  : 				}

	jmp	$LN76@cub_9
$LN75@cub_9:

; 629  : 				else if (j != 0 && J != 0 && tab[J - 1][K] - tab[J][K] == 1) {

	cmp	DWORD PTR _j$[ebp], 0
	je	$LN76@cub_9
	cmp	DWORD PTR _J$[ebp], 0
	je	$LN76@cub_9
	mov	eax, DWORD PTR _J$[ebp]
	mov	ecx, DWORD PTR _tab$[ebp]
	mov	edx, DWORD PTR [ecx+eax*4-4]
	mov	eax, DWORD PTR _J$[ebp]
	mov	ecx, DWORD PTR _tab$[ebp]
	mov	eax, DWORD PTR [ecx+eax*4]
	mov	ecx, DWORD PTR _K$[ebp]
	mov	esi, DWORD PTR _K$[ebp]
	mov	edx, DWORD PTR [edx+ecx*4]
	sub	edx, DWORD PTR [eax+esi*4]
	cmp	edx, 1
	jne	$LN76@cub_9

; 630  : 					j--;

	mov	eax, DWORD PTR _j$[ebp]
	sub	eax, 1
	mov	DWORD PTR _j$[ebp], eax

; 631  : 					J--;

	mov	eax, DWORD PTR _J$[ebp]
	sub	eax, 1
	mov	DWORD PTR _J$[ebp], eax

; 632  : 					////c_6(table, &i, &j, &k);
; 633  : 
; 634  : 					table[j--][k] = i++;

	mov	eax, DWORD PTR _j$[ebp]
	mov	ecx, DWORD PTR _table$[ebp]
	mov	edx, DWORD PTR [ecx+eax*4]
	mov	eax, DWORD PTR _k$[ebp]
	mov	ecx, DWORD PTR _i$[ebp]
	mov	DWORD PTR [edx+eax*4], ecx
	mov	edx, DWORD PTR _j$[ebp]
	sub	edx, 1
	mov	DWORD PTR _j$[ebp], edx
	mov	eax, DWORD PTR _i$[ebp]
	add	eax, 1
	mov	DWORD PTR _i$[ebp], eax

; 635  : 					table[j][k--] = i++;

	mov	eax, DWORD PTR _j$[ebp]
	mov	ecx, DWORD PTR _table$[ebp]
	mov	edx, DWORD PTR [ecx+eax*4]
	mov	eax, DWORD PTR _k$[ebp]
	mov	ecx, DWORD PTR _i$[ebp]
	mov	DWORD PTR [edx+eax*4], ecx
	mov	edx, DWORD PTR _k$[ebp]
	sub	edx, 1
	mov	DWORD PTR _k$[ebp], edx
	mov	eax, DWORD PTR _i$[ebp]
	add	eax, 1
	mov	DWORD PTR _i$[ebp], eax

; 636  : 					table[j++][k] = i++;

	mov	eax, DWORD PTR _j$[ebp]
	mov	ecx, DWORD PTR _table$[ebp]
	mov	edx, DWORD PTR [ecx+eax*4]
	mov	eax, DWORD PTR _k$[ebp]
	mov	ecx, DWORD PTR _i$[ebp]
	mov	DWORD PTR [edx+eax*4], ecx
	mov	edx, DWORD PTR _j$[ebp]
	add	edx, 1
	mov	DWORD PTR _j$[ebp], edx
	mov	eax, DWORD PTR _i$[ebp]
	add	eax, 1
	mov	DWORD PTR _i$[ebp], eax

; 637  : 					table[j][k--] = i++;

	mov	eax, DWORD PTR _j$[ebp]
	mov	ecx, DWORD PTR _table$[ebp]
	mov	edx, DWORD PTR [ecx+eax*4]
	mov	eax, DWORD PTR _k$[ebp]
	mov	ecx, DWORD PTR _i$[ebp]
	mov	DWORD PTR [edx+eax*4], ecx
	mov	edx, DWORD PTR _k$[ebp]
	sub	edx, 1
	mov	DWORD PTR _k$[ebp], edx
	mov	eax, DWORD PTR _i$[ebp]
	add	eax, 1
	mov	DWORD PTR _i$[ebp], eax

; 638  : 					table[j--][k] = i++;

	mov	eax, DWORD PTR _j$[ebp]
	mov	ecx, DWORD PTR _table$[ebp]
	mov	edx, DWORD PTR [ecx+eax*4]
	mov	eax, DWORD PTR _k$[ebp]
	mov	ecx, DWORD PTR _i$[ebp]
	mov	DWORD PTR [edx+eax*4], ecx
	mov	edx, DWORD PTR _j$[ebp]
	sub	edx, 1
	mov	DWORD PTR _j$[ebp], edx
	mov	eax, DWORD PTR _i$[ebp]
	add	eax, 1
	mov	DWORD PTR _i$[ebp], eax

; 639  : 					table[j--][k] = i++;

	mov	eax, DWORD PTR _j$[ebp]
	mov	ecx, DWORD PTR _table$[ebp]
	mov	edx, DWORD PTR [ecx+eax*4]
	mov	eax, DWORD PTR _k$[ebp]
	mov	ecx, DWORD PTR _i$[ebp]
	mov	DWORD PTR [edx+eax*4], ecx
	mov	edx, DWORD PTR _j$[ebp]
	sub	edx, 1
	mov	DWORD PTR _j$[ebp], edx
	mov	eax, DWORD PTR _i$[ebp]
	add	eax, 1
	mov	DWORD PTR _i$[ebp], eax

; 640  : 					table[j][k++] = i++;

	mov	eax, DWORD PTR _j$[ebp]
	mov	ecx, DWORD PTR _table$[ebp]
	mov	edx, DWORD PTR [ecx+eax*4]
	mov	eax, DWORD PTR _k$[ebp]
	mov	ecx, DWORD PTR _i$[ebp]
	mov	DWORD PTR [edx+eax*4], ecx
	mov	edx, DWORD PTR _k$[ebp]
	add	edx, 1
	mov	DWORD PTR _k$[ebp], edx
	mov	eax, DWORD PTR _i$[ebp]
	add	eax, 1
	mov	DWORD PTR _i$[ebp], eax

; 641  : 					table[j][k++] = i++;

	mov	eax, DWORD PTR _j$[ebp]
	mov	ecx, DWORD PTR _table$[ebp]
	mov	edx, DWORD PTR [ecx+eax*4]
	mov	eax, DWORD PTR _k$[ebp]
	mov	ecx, DWORD PTR _i$[ebp]
	mov	DWORD PTR [edx+eax*4], ecx
	mov	edx, DWORD PTR _k$[ebp]
	add	edx, 1
	mov	DWORD PTR _k$[ebp], edx
	mov	eax, DWORD PTR _i$[ebp]
	add	eax, 1
	mov	DWORD PTR _i$[ebp], eax

; 642  : 					table[j][k] = i++;

	mov	eax, DWORD PTR _j$[ebp]
	mov	ecx, DWORD PTR _table$[ebp]
	mov	edx, DWORD PTR [ecx+eax*4]
	mov	eax, DWORD PTR _k$[ebp]
	mov	ecx, DWORD PTR _i$[ebp]
	mov	DWORD PTR [edx+eax*4], ecx
	mov	edx, DWORD PTR _i$[ebp]
	add	edx, 1
	mov	DWORD PTR _i$[ebp], edx
$LN76@cub_9:

; 643  : 
; 644  : 				}
; 645  : 				*sum -= 9;

	mov	eax, DWORD PTR _sum$[ebp]
	mov	ecx, DWORD PTR [eax]
	sub	ecx, 9
	mov	edx, DWORD PTR _sum$[ebp]
	mov	DWORD PTR [edx], ecx

; 646  : 				f = flag;

	mov	eax, DWORD PTR _flag$[ebp]
	mov	DWORD PTR _f$[ebp], eax

; 647  : 				int result = cub_9(table, 33, i, j, k, n, sum, tab, I, J, K);

	mov	eax, DWORD PTR _K$[ebp]
	push	eax
	mov	ecx, DWORD PTR _J$[ebp]
	push	ecx
	mov	edx, DWORD PTR _I$[ebp]
	push	edx
	mov	eax, DWORD PTR _tab$[ebp]
	push	eax
	mov	ecx, DWORD PTR _sum$[ebp]
	push	ecx
	mov	edx, DWORD PTR _n$[ebp]
	push	edx
	mov	eax, DWORD PTR _k$[ebp]
	push	eax
	mov	ecx, DWORD PTR _j$[ebp]
	push	ecx
	mov	edx, DWORD PTR _i$[ebp]
	push	edx
	push	33					; 00000021H
	mov	eax, DWORD PTR _table$[ebp]
	push	eax
	call	?cub_9@@YAHPAPAHHHHHHPAH0HHH@Z		; cub_9
	add	esp, 44					; 0000002cH
	mov	DWORD PTR _result$52[ebp], eax

; 648  : 				if (result == -1 && table[0][n - 1] != n*n) {

	cmp	DWORD PTR _result$52[ebp], -1
	jne	$LN72@cub_9
	mov	eax, 4
	imul	ecx, eax, 0
	mov	edx, DWORD PTR _table$[ebp]
	mov	eax, DWORD PTR [edx+ecx]
	mov	ecx, DWORD PTR _n$[ebp]
	imul	ecx, DWORD PTR _n$[ebp]
	mov	edx, DWORD PTR _n$[ebp]
	cmp	DWORD PTR [eax+edx*4-4], ecx
	je	$LN72@cub_9

; 649  : 					////c_66(table, &i, &j, &k);
; 650  : 
; 651  : 					i = i - 9;

	mov	eax, DWORD PTR _i$[ebp]
	sub	eax, 9
	mov	DWORD PTR _i$[ebp], eax

; 652  : 					table[j][k--] = 0;

	mov	eax, DWORD PTR _j$[ebp]
	mov	ecx, DWORD PTR _table$[ebp]
	mov	edx, DWORD PTR [ecx+eax*4]
	mov	eax, DWORD PTR _k$[ebp]
	mov	DWORD PTR [edx+eax*4], 0
	mov	ecx, DWORD PTR _k$[ebp]
	sub	ecx, 1
	mov	DWORD PTR _k$[ebp], ecx

; 653  : 					table[j][k--] = 0;

	mov	eax, DWORD PTR _j$[ebp]
	mov	ecx, DWORD PTR _table$[ebp]
	mov	edx, DWORD PTR [ecx+eax*4]
	mov	eax, DWORD PTR _k$[ebp]
	mov	DWORD PTR [edx+eax*4], 0
	mov	ecx, DWORD PTR _k$[ebp]
	sub	ecx, 1
	mov	DWORD PTR _k$[ebp], ecx

; 654  : 					table[j++][k] = 0;

	mov	eax, DWORD PTR _j$[ebp]
	mov	ecx, DWORD PTR _table$[ebp]
	mov	edx, DWORD PTR [ecx+eax*4]
	mov	eax, DWORD PTR _k$[ebp]
	mov	DWORD PTR [edx+eax*4], 0
	mov	ecx, DWORD PTR _j$[ebp]
	add	ecx, 1
	mov	DWORD PTR _j$[ebp], ecx

; 655  : 					table[j++][k] = 0;

	mov	eax, DWORD PTR _j$[ebp]
	mov	ecx, DWORD PTR _table$[ebp]
	mov	edx, DWORD PTR [ecx+eax*4]
	mov	eax, DWORD PTR _k$[ebp]
	mov	DWORD PTR [edx+eax*4], 0
	mov	ecx, DWORD PTR _j$[ebp]
	add	ecx, 1
	mov	DWORD PTR _j$[ebp], ecx

; 656  : 					table[j][k++] = 0;

	mov	eax, DWORD PTR _j$[ebp]
	mov	ecx, DWORD PTR _table$[ebp]
	mov	edx, DWORD PTR [ecx+eax*4]
	mov	eax, DWORD PTR _k$[ebp]
	mov	DWORD PTR [edx+eax*4], 0
	mov	ecx, DWORD PTR _k$[ebp]
	add	ecx, 1
	mov	DWORD PTR _k$[ebp], ecx

; 657  : 					table[j--][k] = 0;

	mov	eax, DWORD PTR _j$[ebp]
	mov	ecx, DWORD PTR _table$[ebp]
	mov	edx, DWORD PTR [ecx+eax*4]
	mov	eax, DWORD PTR _k$[ebp]
	mov	DWORD PTR [edx+eax*4], 0
	mov	ecx, DWORD PTR _j$[ebp]
	sub	ecx, 1
	mov	DWORD PTR _j$[ebp], ecx

; 658  : 					table[j][k++] = 0;

	mov	eax, DWORD PTR _j$[ebp]
	mov	ecx, DWORD PTR _table$[ebp]
	mov	edx, DWORD PTR [ecx+eax*4]
	mov	eax, DWORD PTR _k$[ebp]
	mov	DWORD PTR [edx+eax*4], 0
	mov	ecx, DWORD PTR _k$[ebp]
	add	ecx, 1
	mov	DWORD PTR _k$[ebp], ecx

; 659  : 					table[j++][k] = 0;

	mov	eax, DWORD PTR _j$[ebp]
	mov	ecx, DWORD PTR _table$[ebp]
	mov	edx, DWORD PTR [ecx+eax*4]
	mov	eax, DWORD PTR _k$[ebp]
	mov	DWORD PTR [edx+eax*4], 0
	mov	ecx, DWORD PTR _j$[ebp]
	add	ecx, 1
	mov	DWORD PTR _j$[ebp], ecx

; 660  : 					table[j][k] = 0;

	mov	eax, DWORD PTR _j$[ebp]
	mov	ecx, DWORD PTR _table$[ebp]
	mov	edx, DWORD PTR [ecx+eax*4]
	mov	eax, DWORD PTR _k$[ebp]
	mov	DWORD PTR [edx+eax*4], 0

; 661  : 
; 662  : 					*sum += 9;

	mov	eax, DWORD PTR _sum$[ebp]
	mov	ecx, DWORD PTR [eax]
	add	ecx, 9
	mov	edx, DWORD PTR _sum$[ebp]
	mov	DWORD PTR [edx], ecx

; 663  : 					if (f == 37) {

	cmp	DWORD PTR _f$[ebp], 37			; 00000025H
	jne	SHORT $LN79@cub_9

; 664  : 						K++;

	mov	eax, DWORD PTR _K$[ebp]
	add	eax, 1
	mov	DWORD PTR _K$[ebp], eax

; 665  : 						k++;

	mov	eax, DWORD PTR _k$[ebp]
	add	eax, 1
	mov	DWORD PTR _k$[ebp], eax

; 666  : 					}

	jmp	SHORT $LN72@cub_9
$LN79@cub_9:

; 667  : 					else {
; 668  : 						J++;

	mov	eax, DWORD PTR _J$[ebp]
	add	eax, 1
	mov	DWORD PTR _J$[ebp], eax

; 669  : 						j++;

	mov	eax, DWORD PTR _j$[ebp]
	add	eax, 1
	mov	DWORD PTR _j$[ebp], eax
$LN72@cub_9:

; 670  : 					}
; 671  : 				}
; 672  : 			}
; 673  : 			if (table[0][n - 1] != n * n && flag == 33 && J != 0 && tab[J - 1][K] - tab[J][K] == 1) {

	mov	eax, 4
	imul	ecx, eax, 0
	mov	edx, DWORD PTR _table$[ebp]
	mov	eax, DWORD PTR [edx+ecx]
	mov	ecx, DWORD PTR _n$[ebp]
	imul	ecx, DWORD PTR _n$[ebp]
	mov	edx, DWORD PTR _n$[ebp]
	cmp	DWORD PTR [eax+edx*4-4], ecx
	je	$LN81@cub_9
	cmp	DWORD PTR _flag$[ebp], 33		; 00000021H
	jne	$LN81@cub_9
	cmp	DWORD PTR _J$[ebp], 0
	je	$LN81@cub_9
	mov	eax, DWORD PTR _J$[ebp]
	mov	ecx, DWORD PTR _tab$[ebp]
	mov	edx, DWORD PTR [ecx+eax*4-4]
	mov	eax, DWORD PTR _J$[ebp]
	mov	ecx, DWORD PTR _tab$[ebp]
	mov	eax, DWORD PTR [ecx+eax*4]
	mov	ecx, DWORD PTR _K$[ebp]
	mov	esi, DWORD PTR _K$[ebp]
	mov	edx, DWORD PTR [edx+ecx*4]
	sub	edx, DWORD PTR [eax+esi*4]
	cmp	edx, 1
	jne	$LN81@cub_9

; 674  : 				j--;

	mov	eax, DWORD PTR _j$[ebp]
	sub	eax, 1
	mov	DWORD PTR _j$[ebp], eax

; 675  : 				J--;

	mov	eax, DWORD PTR _J$[ebp]
	sub	eax, 1
	mov	DWORD PTR _J$[ebp], eax

; 676  : 				////c_6(table, &i, &j, &k);
; 677  : 
; 678  : 				table[j--][k] = i++;

	mov	eax, DWORD PTR _j$[ebp]
	mov	ecx, DWORD PTR _table$[ebp]
	mov	edx, DWORD PTR [ecx+eax*4]
	mov	eax, DWORD PTR _k$[ebp]
	mov	ecx, DWORD PTR _i$[ebp]
	mov	DWORD PTR [edx+eax*4], ecx
	mov	edx, DWORD PTR _j$[ebp]
	sub	edx, 1
	mov	DWORD PTR _j$[ebp], edx
	mov	eax, DWORD PTR _i$[ebp]
	add	eax, 1
	mov	DWORD PTR _i$[ebp], eax

; 679  : 				table[j][k--] = i++;

	mov	eax, DWORD PTR _j$[ebp]
	mov	ecx, DWORD PTR _table$[ebp]
	mov	edx, DWORD PTR [ecx+eax*4]
	mov	eax, DWORD PTR _k$[ebp]
	mov	ecx, DWORD PTR _i$[ebp]
	mov	DWORD PTR [edx+eax*4], ecx
	mov	edx, DWORD PTR _k$[ebp]
	sub	edx, 1
	mov	DWORD PTR _k$[ebp], edx
	mov	eax, DWORD PTR _i$[ebp]
	add	eax, 1
	mov	DWORD PTR _i$[ebp], eax

; 680  : 				table[j++][k] = i++;

	mov	eax, DWORD PTR _j$[ebp]
	mov	ecx, DWORD PTR _table$[ebp]
	mov	edx, DWORD PTR [ecx+eax*4]
	mov	eax, DWORD PTR _k$[ebp]
	mov	ecx, DWORD PTR _i$[ebp]
	mov	DWORD PTR [edx+eax*4], ecx
	mov	edx, DWORD PTR _j$[ebp]
	add	edx, 1
	mov	DWORD PTR _j$[ebp], edx
	mov	eax, DWORD PTR _i$[ebp]
	add	eax, 1
	mov	DWORD PTR _i$[ebp], eax

; 681  : 				table[j][k--] = i++;

	mov	eax, DWORD PTR _j$[ebp]
	mov	ecx, DWORD PTR _table$[ebp]
	mov	edx, DWORD PTR [ecx+eax*4]
	mov	eax, DWORD PTR _k$[ebp]
	mov	ecx, DWORD PTR _i$[ebp]
	mov	DWORD PTR [edx+eax*4], ecx
	mov	edx, DWORD PTR _k$[ebp]
	sub	edx, 1
	mov	DWORD PTR _k$[ebp], edx
	mov	eax, DWORD PTR _i$[ebp]
	add	eax, 1
	mov	DWORD PTR _i$[ebp], eax

; 682  : 				table[j--][k] = i++;

	mov	eax, DWORD PTR _j$[ebp]
	mov	ecx, DWORD PTR _table$[ebp]
	mov	edx, DWORD PTR [ecx+eax*4]
	mov	eax, DWORD PTR _k$[ebp]
	mov	ecx, DWORD PTR _i$[ebp]
	mov	DWORD PTR [edx+eax*4], ecx
	mov	edx, DWORD PTR _j$[ebp]
	sub	edx, 1
	mov	DWORD PTR _j$[ebp], edx
	mov	eax, DWORD PTR _i$[ebp]
	add	eax, 1
	mov	DWORD PTR _i$[ebp], eax

; 683  : 				table[j--][k] = i++;

	mov	eax, DWORD PTR _j$[ebp]
	mov	ecx, DWORD PTR _table$[ebp]
	mov	edx, DWORD PTR [ecx+eax*4]
	mov	eax, DWORD PTR _k$[ebp]
	mov	ecx, DWORD PTR _i$[ebp]
	mov	DWORD PTR [edx+eax*4], ecx
	mov	edx, DWORD PTR _j$[ebp]
	sub	edx, 1
	mov	DWORD PTR _j$[ebp], edx
	mov	eax, DWORD PTR _i$[ebp]
	add	eax, 1
	mov	DWORD PTR _i$[ebp], eax

; 684  : 				table[j][k++] = i++;

	mov	eax, DWORD PTR _j$[ebp]
	mov	ecx, DWORD PTR _table$[ebp]
	mov	edx, DWORD PTR [ecx+eax*4]
	mov	eax, DWORD PTR _k$[ebp]
	mov	ecx, DWORD PTR _i$[ebp]
	mov	DWORD PTR [edx+eax*4], ecx
	mov	edx, DWORD PTR _k$[ebp]
	add	edx, 1
	mov	DWORD PTR _k$[ebp], edx
	mov	eax, DWORD PTR _i$[ebp]
	add	eax, 1
	mov	DWORD PTR _i$[ebp], eax

; 685  : 				table[j][k++] = i++;

	mov	eax, DWORD PTR _j$[ebp]
	mov	ecx, DWORD PTR _table$[ebp]
	mov	edx, DWORD PTR [ecx+eax*4]
	mov	eax, DWORD PTR _k$[ebp]
	mov	ecx, DWORD PTR _i$[ebp]
	mov	DWORD PTR [edx+eax*4], ecx
	mov	edx, DWORD PTR _k$[ebp]
	add	edx, 1
	mov	DWORD PTR _k$[ebp], edx
	mov	eax, DWORD PTR _i$[ebp]
	add	eax, 1
	mov	DWORD PTR _i$[ebp], eax

; 686  : 				table[j][k] = i++;

	mov	eax, DWORD PTR _j$[ebp]
	mov	ecx, DWORD PTR _table$[ebp]
	mov	edx, DWORD PTR [ecx+eax*4]
	mov	eax, DWORD PTR _k$[ebp]
	mov	ecx, DWORD PTR _i$[ebp]
	mov	DWORD PTR [edx+eax*4], ecx
	mov	edx, DWORD PTR _i$[ebp]
	add	edx, 1
	mov	DWORD PTR _i$[ebp], edx

; 687  : 
; 688  : 				*sum -= 9;

	mov	eax, DWORD PTR _sum$[ebp]
	mov	ecx, DWORD PTR [eax]
	sub	ecx, 9
	mov	edx, DWORD PTR _sum$[ebp]
	mov	DWORD PTR [edx], ecx

; 689  : 				int result = cub_9(table, 23, i, j, k, n, sum, tab, I, J, K);

	mov	eax, DWORD PTR _K$[ebp]
	push	eax
	mov	ecx, DWORD PTR _J$[ebp]
	push	ecx
	mov	edx, DWORD PTR _I$[ebp]
	push	edx
	mov	eax, DWORD PTR _tab$[ebp]
	push	eax
	mov	ecx, DWORD PTR _sum$[ebp]
	push	ecx
	mov	edx, DWORD PTR _n$[ebp]
	push	edx
	mov	eax, DWORD PTR _k$[ebp]
	push	eax
	mov	ecx, DWORD PTR _j$[ebp]
	push	ecx
	mov	edx, DWORD PTR _i$[ebp]
	push	edx
	push	23					; 00000017H
	mov	eax, DWORD PTR _table$[ebp]
	push	eax
	call	?cub_9@@YAHPAPAHHHHHHPAH0HHH@Z		; cub_9
	add	esp, 44					; 0000002cH
	mov	DWORD PTR _result$51[ebp], eax

; 690  : 				if (result == -1 && table[0][n - 1] != n*n) {

	cmp	DWORD PTR _result$51[ebp], -1
	jne	$LN81@cub_9
	mov	eax, 4
	imul	ecx, eax, 0
	mov	edx, DWORD PTR _table$[ebp]
	mov	eax, DWORD PTR [edx+ecx]
	mov	ecx, DWORD PTR _n$[ebp]
	imul	ecx, DWORD PTR _n$[ebp]
	mov	edx, DWORD PTR _n$[ebp]
	cmp	DWORD PTR [eax+edx*4-4], ecx
	je	$LN81@cub_9

; 691  : 					////c_66(table, &i, &j, &k);
; 692  : 
; 693  : 					i = i - 9;

	mov	eax, DWORD PTR _i$[ebp]
	sub	eax, 9
	mov	DWORD PTR _i$[ebp], eax

; 694  : 					table[j][k--] = 0;

	mov	eax, DWORD PTR _j$[ebp]
	mov	ecx, DWORD PTR _table$[ebp]
	mov	edx, DWORD PTR [ecx+eax*4]
	mov	eax, DWORD PTR _k$[ebp]
	mov	DWORD PTR [edx+eax*4], 0
	mov	ecx, DWORD PTR _k$[ebp]
	sub	ecx, 1
	mov	DWORD PTR _k$[ebp], ecx

; 695  : 					table[j][k--] = 0;

	mov	eax, DWORD PTR _j$[ebp]
	mov	ecx, DWORD PTR _table$[ebp]
	mov	edx, DWORD PTR [ecx+eax*4]
	mov	eax, DWORD PTR _k$[ebp]
	mov	DWORD PTR [edx+eax*4], 0
	mov	ecx, DWORD PTR _k$[ebp]
	sub	ecx, 1
	mov	DWORD PTR _k$[ebp], ecx

; 696  : 					table[j++][k] = 0;

	mov	eax, DWORD PTR _j$[ebp]
	mov	ecx, DWORD PTR _table$[ebp]
	mov	edx, DWORD PTR [ecx+eax*4]
	mov	eax, DWORD PTR _k$[ebp]
	mov	DWORD PTR [edx+eax*4], 0
	mov	ecx, DWORD PTR _j$[ebp]
	add	ecx, 1
	mov	DWORD PTR _j$[ebp], ecx

; 697  : 					table[j++][k] = 0;

	mov	eax, DWORD PTR _j$[ebp]
	mov	ecx, DWORD PTR _table$[ebp]
	mov	edx, DWORD PTR [ecx+eax*4]
	mov	eax, DWORD PTR _k$[ebp]
	mov	DWORD PTR [edx+eax*4], 0
	mov	ecx, DWORD PTR _j$[ebp]
	add	ecx, 1
	mov	DWORD PTR _j$[ebp], ecx

; 698  : 					table[j][k++] = 0;

	mov	eax, DWORD PTR _j$[ebp]
	mov	ecx, DWORD PTR _table$[ebp]
	mov	edx, DWORD PTR [ecx+eax*4]
	mov	eax, DWORD PTR _k$[ebp]
	mov	DWORD PTR [edx+eax*4], 0
	mov	ecx, DWORD PTR _k$[ebp]
	add	ecx, 1
	mov	DWORD PTR _k$[ebp], ecx

; 699  : 					table[j--][k] = 0;

	mov	eax, DWORD PTR _j$[ebp]
	mov	ecx, DWORD PTR _table$[ebp]
	mov	edx, DWORD PTR [ecx+eax*4]
	mov	eax, DWORD PTR _k$[ebp]
	mov	DWORD PTR [edx+eax*4], 0
	mov	ecx, DWORD PTR _j$[ebp]
	sub	ecx, 1
	mov	DWORD PTR _j$[ebp], ecx

; 700  : 					table[j][k++] = 0;

	mov	eax, DWORD PTR _j$[ebp]
	mov	ecx, DWORD PTR _table$[ebp]
	mov	edx, DWORD PTR [ecx+eax*4]
	mov	eax, DWORD PTR _k$[ebp]
	mov	DWORD PTR [edx+eax*4], 0
	mov	ecx, DWORD PTR _k$[ebp]
	add	ecx, 1
	mov	DWORD PTR _k$[ebp], ecx

; 701  : 					table[j++][k] = 0;

	mov	eax, DWORD PTR _j$[ebp]
	mov	ecx, DWORD PTR _table$[ebp]
	mov	edx, DWORD PTR [ecx+eax*4]
	mov	eax, DWORD PTR _k$[ebp]
	mov	DWORD PTR [edx+eax*4], 0
	mov	ecx, DWORD PTR _j$[ebp]
	add	ecx, 1
	mov	DWORD PTR _j$[ebp], ecx

; 702  : 					table[j][k] = 0;

	mov	eax, DWORD PTR _j$[ebp]
	mov	ecx, DWORD PTR _table$[ebp]
	mov	edx, DWORD PTR [ecx+eax*4]
	mov	eax, DWORD PTR _k$[ebp]
	mov	DWORD PTR [edx+eax*4], 0

; 703  : 
; 704  : 					*sum += 9;

	mov	eax, DWORD PTR _sum$[ebp]
	mov	ecx, DWORD PTR [eax]
	add	ecx, 9
	mov	edx, DWORD PTR _sum$[ebp]
	mov	DWORD PTR [edx], ecx

; 705  : 					j++;

	mov	eax, DWORD PTR _j$[ebp]
	add	eax, 1
	mov	DWORD PTR _j$[ebp], eax

; 706  : 					J++;

	mov	eax, DWORD PTR _J$[ebp]
	add	eax, 1
	mov	DWORD PTR _J$[ebp], eax
$LN81@cub_9:

; 707  : 				}
; 708  : 			}
; 709  : 			if (table[0][n - 1] != n * n && flag == 43 || flag == 37) {

	mov	eax, 4
	imul	ecx, eax, 0
	mov	edx, DWORD PTR _table$[ebp]
	mov	eax, DWORD PTR [edx+ecx]
	mov	ecx, DWORD PTR _n$[ebp]
	imul	ecx, DWORD PTR _n$[ebp]
	mov	edx, DWORD PTR _n$[ebp]
	cmp	DWORD PTR [eax+edx*4-4], ecx
	je	SHORT $LN85@cub_9
	cmp	DWORD PTR _flag$[ebp], 43		; 0000002bH
	je	SHORT $LN84@cub_9
$LN85@cub_9:
	cmp	DWORD PTR _flag$[ebp], 37		; 00000025H
	jne	$LN83@cub_9
$LN84@cub_9:

; 710  : 				if (table[0][n - 1] != n * n && flag == 37 && K != 0 && tab[J][K - 1] - tab[J][K] == 1) {

	mov	eax, 4
	imul	ecx, eax, 0
	mov	edx, DWORD PTR _table$[ebp]
	mov	eax, DWORD PTR [edx+ecx]
	mov	ecx, DWORD PTR _n$[ebp]
	imul	ecx, DWORD PTR _n$[ebp]
	mov	edx, DWORD PTR _n$[ebp]
	cmp	DWORD PTR [eax+edx*4-4], ecx
	je	$LN86@cub_9
	cmp	DWORD PTR _flag$[ebp], 37		; 00000025H
	jne	$LN86@cub_9
	cmp	DWORD PTR _K$[ebp], 0
	je	$LN86@cub_9
	mov	eax, DWORD PTR _J$[ebp]
	mov	ecx, DWORD PTR _tab$[ebp]
	mov	edx, DWORD PTR [ecx+eax*4]
	mov	eax, DWORD PTR _J$[ebp]
	mov	ecx, DWORD PTR _tab$[ebp]
	mov	eax, DWORD PTR [ecx+eax*4]
	mov	ecx, DWORD PTR _K$[ebp]
	mov	esi, DWORD PTR _K$[ebp]
	mov	edx, DWORD PTR [edx+ecx*4-4]
	sub	edx, DWORD PTR [eax+esi*4]
	cmp	edx, 1
	jne	$LN86@cub_9

; 711  : 					k--;

	mov	eax, DWORD PTR _k$[ebp]
	sub	eax, 1
	mov	DWORD PTR _k$[ebp], eax

; 712  : 					K--;

	mov	eax, DWORD PTR _K$[ebp]
	sub	eax, 1
	mov	DWORD PTR _K$[ebp], eax

; 713  : 					////c_7(table, &i, &j, &k);
; 714  : 
; 715  : 					table[j][k--] = i++;

	mov	eax, DWORD PTR _j$[ebp]
	mov	ecx, DWORD PTR _table$[ebp]
	mov	edx, DWORD PTR [ecx+eax*4]
	mov	eax, DWORD PTR _k$[ebp]
	mov	ecx, DWORD PTR _i$[ebp]
	mov	DWORD PTR [edx+eax*4], ecx
	mov	edx, DWORD PTR _k$[ebp]
	sub	edx, 1
	mov	DWORD PTR _k$[ebp], edx
	mov	eax, DWORD PTR _i$[ebp]
	add	eax, 1
	mov	DWORD PTR _i$[ebp], eax

; 716  : 					table[j--][k] = i++;

	mov	eax, DWORD PTR _j$[ebp]
	mov	ecx, DWORD PTR _table$[ebp]
	mov	edx, DWORD PTR [ecx+eax*4]
	mov	eax, DWORD PTR _k$[ebp]
	mov	ecx, DWORD PTR _i$[ebp]
	mov	DWORD PTR [edx+eax*4], ecx
	mov	edx, DWORD PTR _j$[ebp]
	sub	edx, 1
	mov	DWORD PTR _j$[ebp], edx
	mov	eax, DWORD PTR _i$[ebp]
	add	eax, 1
	mov	DWORD PTR _i$[ebp], eax

; 717  : 					table[j][k++] = i++;

	mov	eax, DWORD PTR _j$[ebp]
	mov	ecx, DWORD PTR _table$[ebp]
	mov	edx, DWORD PTR [ecx+eax*4]
	mov	eax, DWORD PTR _k$[ebp]
	mov	ecx, DWORD PTR _i$[ebp]
	mov	DWORD PTR [edx+eax*4], ecx
	mov	edx, DWORD PTR _k$[ebp]
	add	edx, 1
	mov	DWORD PTR _k$[ebp], edx
	mov	eax, DWORD PTR _i$[ebp]
	add	eax, 1
	mov	DWORD PTR _i$[ebp], eax

; 718  : 					table[j--][k] = i++;

	mov	eax, DWORD PTR _j$[ebp]
	mov	ecx, DWORD PTR _table$[ebp]
	mov	edx, DWORD PTR [ecx+eax*4]
	mov	eax, DWORD PTR _k$[ebp]
	mov	ecx, DWORD PTR _i$[ebp]
	mov	DWORD PTR [edx+eax*4], ecx
	mov	edx, DWORD PTR _j$[ebp]
	sub	edx, 1
	mov	DWORD PTR _j$[ebp], edx
	mov	eax, DWORD PTR _i$[ebp]
	add	eax, 1
	mov	DWORD PTR _i$[ebp], eax

; 719  : 					table[j][k--] = i++;

	mov	eax, DWORD PTR _j$[ebp]
	mov	ecx, DWORD PTR _table$[ebp]
	mov	edx, DWORD PTR [ecx+eax*4]
	mov	eax, DWORD PTR _k$[ebp]
	mov	ecx, DWORD PTR _i$[ebp]
	mov	DWORD PTR [edx+eax*4], ecx
	mov	edx, DWORD PTR _k$[ebp]
	sub	edx, 1
	mov	DWORD PTR _k$[ebp], edx
	mov	eax, DWORD PTR _i$[ebp]
	add	eax, 1
	mov	DWORD PTR _i$[ebp], eax

; 720  : 					table[j][k--] = i++;

	mov	eax, DWORD PTR _j$[ebp]
	mov	ecx, DWORD PTR _table$[ebp]
	mov	edx, DWORD PTR [ecx+eax*4]
	mov	eax, DWORD PTR _k$[ebp]
	mov	ecx, DWORD PTR _i$[ebp]
	mov	DWORD PTR [edx+eax*4], ecx
	mov	edx, DWORD PTR _k$[ebp]
	sub	edx, 1
	mov	DWORD PTR _k$[ebp], edx
	mov	eax, DWORD PTR _i$[ebp]
	add	eax, 1
	mov	DWORD PTR _i$[ebp], eax

; 721  : 					table[j++][k] = i++;

	mov	eax, DWORD PTR _j$[ebp]
	mov	ecx, DWORD PTR _table$[ebp]
	mov	edx, DWORD PTR [ecx+eax*4]
	mov	eax, DWORD PTR _k$[ebp]
	mov	ecx, DWORD PTR _i$[ebp]
	mov	DWORD PTR [edx+eax*4], ecx
	mov	edx, DWORD PTR _j$[ebp]
	add	edx, 1
	mov	DWORD PTR _j$[ebp], edx
	mov	eax, DWORD PTR _i$[ebp]
	add	eax, 1
	mov	DWORD PTR _i$[ebp], eax

; 722  : 					table[j++][k] = i++;

	mov	eax, DWORD PTR _j$[ebp]
	mov	ecx, DWORD PTR _table$[ebp]
	mov	edx, DWORD PTR [ecx+eax*4]
	mov	eax, DWORD PTR _k$[ebp]
	mov	ecx, DWORD PTR _i$[ebp]
	mov	DWORD PTR [edx+eax*4], ecx
	mov	edx, DWORD PTR _j$[ebp]
	add	edx, 1
	mov	DWORD PTR _j$[ebp], edx
	mov	eax, DWORD PTR _i$[ebp]
	add	eax, 1
	mov	DWORD PTR _i$[ebp], eax

; 723  : 					table[j][k] = i++;

	mov	eax, DWORD PTR _j$[ebp]
	mov	ecx, DWORD PTR _table$[ebp]
	mov	edx, DWORD PTR [ecx+eax*4]
	mov	eax, DWORD PTR _k$[ebp]
	mov	ecx, DWORD PTR _i$[ebp]
	mov	DWORD PTR [edx+eax*4], ecx
	mov	edx, DWORD PTR _i$[ebp]
	add	edx, 1
	mov	DWORD PTR _i$[ebp], edx

; 724  : 
; 725  : 				}

	jmp	$LN87@cub_9
$LN86@cub_9:

; 726  : 				else if (j != 0 && J != 0 && tab[J - 1][K] - tab[J][K] == 1) {

	cmp	DWORD PTR _j$[ebp], 0
	je	$LN87@cub_9
	cmp	DWORD PTR _J$[ebp], 0
	je	$LN87@cub_9
	mov	eax, DWORD PTR _J$[ebp]
	mov	ecx, DWORD PTR _tab$[ebp]
	mov	edx, DWORD PTR [ecx+eax*4-4]
	mov	eax, DWORD PTR _J$[ebp]
	mov	ecx, DWORD PTR _tab$[ebp]
	mov	eax, DWORD PTR [ecx+eax*4]
	mov	ecx, DWORD PTR _K$[ebp]
	mov	esi, DWORD PTR _K$[ebp]
	mov	edx, DWORD PTR [edx+ecx*4]
	sub	edx, DWORD PTR [eax+esi*4]
	cmp	edx, 1
	jne	$LN87@cub_9

; 727  : 					j--;

	mov	eax, DWORD PTR _j$[ebp]
	sub	eax, 1
	mov	DWORD PTR _j$[ebp], eax

; 728  : 					J--;

	mov	eax, DWORD PTR _J$[ebp]
	sub	eax, 1
	mov	DWORD PTR _J$[ebp], eax

; 729  : 					////c_7(table, &i, &j, &k);
; 730  : 
; 731  : 					table[j][k--] = i++;

	mov	eax, DWORD PTR _j$[ebp]
	mov	ecx, DWORD PTR _table$[ebp]
	mov	edx, DWORD PTR [ecx+eax*4]
	mov	eax, DWORD PTR _k$[ebp]
	mov	ecx, DWORD PTR _i$[ebp]
	mov	DWORD PTR [edx+eax*4], ecx
	mov	edx, DWORD PTR _k$[ebp]
	sub	edx, 1
	mov	DWORD PTR _k$[ebp], edx
	mov	eax, DWORD PTR _i$[ebp]
	add	eax, 1
	mov	DWORD PTR _i$[ebp], eax

; 732  : 					table[j--][k] = i++;

	mov	eax, DWORD PTR _j$[ebp]
	mov	ecx, DWORD PTR _table$[ebp]
	mov	edx, DWORD PTR [ecx+eax*4]
	mov	eax, DWORD PTR _k$[ebp]
	mov	ecx, DWORD PTR _i$[ebp]
	mov	DWORD PTR [edx+eax*4], ecx
	mov	edx, DWORD PTR _j$[ebp]
	sub	edx, 1
	mov	DWORD PTR _j$[ebp], edx
	mov	eax, DWORD PTR _i$[ebp]
	add	eax, 1
	mov	DWORD PTR _i$[ebp], eax

; 733  : 					table[j][k++] = i++;

	mov	eax, DWORD PTR _j$[ebp]
	mov	ecx, DWORD PTR _table$[ebp]
	mov	edx, DWORD PTR [ecx+eax*4]
	mov	eax, DWORD PTR _k$[ebp]
	mov	ecx, DWORD PTR _i$[ebp]
	mov	DWORD PTR [edx+eax*4], ecx
	mov	edx, DWORD PTR _k$[ebp]
	add	edx, 1
	mov	DWORD PTR _k$[ebp], edx
	mov	eax, DWORD PTR _i$[ebp]
	add	eax, 1
	mov	DWORD PTR _i$[ebp], eax

; 734  : 					table[j--][k] = i++;

	mov	eax, DWORD PTR _j$[ebp]
	mov	ecx, DWORD PTR _table$[ebp]
	mov	edx, DWORD PTR [ecx+eax*4]
	mov	eax, DWORD PTR _k$[ebp]
	mov	ecx, DWORD PTR _i$[ebp]
	mov	DWORD PTR [edx+eax*4], ecx
	mov	edx, DWORD PTR _j$[ebp]
	sub	edx, 1
	mov	DWORD PTR _j$[ebp], edx
	mov	eax, DWORD PTR _i$[ebp]
	add	eax, 1
	mov	DWORD PTR _i$[ebp], eax

; 735  : 					table[j][k--] = i++;

	mov	eax, DWORD PTR _j$[ebp]
	mov	ecx, DWORD PTR _table$[ebp]
	mov	edx, DWORD PTR [ecx+eax*4]
	mov	eax, DWORD PTR _k$[ebp]
	mov	ecx, DWORD PTR _i$[ebp]
	mov	DWORD PTR [edx+eax*4], ecx
	mov	edx, DWORD PTR _k$[ebp]
	sub	edx, 1
	mov	DWORD PTR _k$[ebp], edx
	mov	eax, DWORD PTR _i$[ebp]
	add	eax, 1
	mov	DWORD PTR _i$[ebp], eax

; 736  : 					table[j][k--] = i++;

	mov	eax, DWORD PTR _j$[ebp]
	mov	ecx, DWORD PTR _table$[ebp]
	mov	edx, DWORD PTR [ecx+eax*4]
	mov	eax, DWORD PTR _k$[ebp]
	mov	ecx, DWORD PTR _i$[ebp]
	mov	DWORD PTR [edx+eax*4], ecx
	mov	edx, DWORD PTR _k$[ebp]
	sub	edx, 1
	mov	DWORD PTR _k$[ebp], edx
	mov	eax, DWORD PTR _i$[ebp]
	add	eax, 1
	mov	DWORD PTR _i$[ebp], eax

; 737  : 					table[j++][k] = i++;

	mov	eax, DWORD PTR _j$[ebp]
	mov	ecx, DWORD PTR _table$[ebp]
	mov	edx, DWORD PTR [ecx+eax*4]
	mov	eax, DWORD PTR _k$[ebp]
	mov	ecx, DWORD PTR _i$[ebp]
	mov	DWORD PTR [edx+eax*4], ecx
	mov	edx, DWORD PTR _j$[ebp]
	add	edx, 1
	mov	DWORD PTR _j$[ebp], edx
	mov	eax, DWORD PTR _i$[ebp]
	add	eax, 1
	mov	DWORD PTR _i$[ebp], eax

; 738  : 					table[j++][k] = i++;

	mov	eax, DWORD PTR _j$[ebp]
	mov	ecx, DWORD PTR _table$[ebp]
	mov	edx, DWORD PTR [ecx+eax*4]
	mov	eax, DWORD PTR _k$[ebp]
	mov	ecx, DWORD PTR _i$[ebp]
	mov	DWORD PTR [edx+eax*4], ecx
	mov	edx, DWORD PTR _j$[ebp]
	add	edx, 1
	mov	DWORD PTR _j$[ebp], edx
	mov	eax, DWORD PTR _i$[ebp]
	add	eax, 1
	mov	DWORD PTR _i$[ebp], eax

; 739  : 					table[j][k] = i++;

	mov	eax, DWORD PTR _j$[ebp]
	mov	ecx, DWORD PTR _table$[ebp]
	mov	edx, DWORD PTR [ecx+eax*4]
	mov	eax, DWORD PTR _k$[ebp]
	mov	ecx, DWORD PTR _i$[ebp]
	mov	DWORD PTR [edx+eax*4], ecx
	mov	edx, DWORD PTR _i$[ebp]
	add	edx, 1
	mov	DWORD PTR _i$[ebp], edx
$LN87@cub_9:

; 740  : 
; 741  : 				}
; 742  : 				*sum -= 9;

	mov	eax, DWORD PTR _sum$[ebp]
	mov	ecx, DWORD PTR [eax]
	sub	ecx, 9
	mov	edx, DWORD PTR _sum$[ebp]
	mov	DWORD PTR [edx], ecx

; 743  : 				f = flag;

	mov	eax, DWORD PTR _flag$[ebp]
	mov	DWORD PTR _f$[ebp], eax

; 744  : 				int result = cub_9(table, 47, i, j, k, n, sum, tab, I, J, K);

	mov	eax, DWORD PTR _K$[ebp]
	push	eax
	mov	ecx, DWORD PTR _J$[ebp]
	push	ecx
	mov	edx, DWORD PTR _I$[ebp]
	push	edx
	mov	eax, DWORD PTR _tab$[ebp]
	push	eax
	mov	ecx, DWORD PTR _sum$[ebp]
	push	ecx
	mov	edx, DWORD PTR _n$[ebp]
	push	edx
	mov	eax, DWORD PTR _k$[ebp]
	push	eax
	mov	ecx, DWORD PTR _j$[ebp]
	push	ecx
	mov	edx, DWORD PTR _i$[ebp]
	push	edx
	push	47					; 0000002fH
	mov	eax, DWORD PTR _table$[ebp]
	push	eax
	call	?cub_9@@YAHPAPAHHHHHHPAH0HHH@Z		; cub_9
	add	esp, 44					; 0000002cH
	mov	DWORD PTR _result$50[ebp], eax

; 745  : 				if (result == -1 && table[0][n - 1] != n*n) {

	cmp	DWORD PTR _result$50[ebp], -1
	jne	$LN83@cub_9
	mov	eax, 4
	imul	ecx, eax, 0
	mov	edx, DWORD PTR _table$[ebp]
	mov	eax, DWORD PTR [edx+ecx]
	mov	ecx, DWORD PTR _n$[ebp]
	imul	ecx, DWORD PTR _n$[ebp]
	mov	edx, DWORD PTR _n$[ebp]
	cmp	DWORD PTR [eax+edx*4-4], ecx
	je	$LN83@cub_9

; 746  : 					////c_77(table, &i, &j, &k);
; 747  : 
; 748  : 					i = i - 9;

	mov	eax, DWORD PTR _i$[ebp]
	sub	eax, 9
	mov	DWORD PTR _i$[ebp], eax

; 749  : 					table[j--][k] = 0;

	mov	eax, DWORD PTR _j$[ebp]
	mov	ecx, DWORD PTR _table$[ebp]
	mov	edx, DWORD PTR [ecx+eax*4]
	mov	eax, DWORD PTR _k$[ebp]
	mov	DWORD PTR [edx+eax*4], 0
	mov	ecx, DWORD PTR _j$[ebp]
	sub	ecx, 1
	mov	DWORD PTR _j$[ebp], ecx

; 750  : 					table[j--][k] = 0;

	mov	eax, DWORD PTR _j$[ebp]
	mov	ecx, DWORD PTR _table$[ebp]
	mov	edx, DWORD PTR [ecx+eax*4]
	mov	eax, DWORD PTR _k$[ebp]
	mov	DWORD PTR [edx+eax*4], 0
	mov	ecx, DWORD PTR _j$[ebp]
	sub	ecx, 1
	mov	DWORD PTR _j$[ebp], ecx

; 751  : 					table[j][k++] = 0;

	mov	eax, DWORD PTR _j$[ebp]
	mov	ecx, DWORD PTR _table$[ebp]
	mov	edx, DWORD PTR [ecx+eax*4]
	mov	eax, DWORD PTR _k$[ebp]
	mov	DWORD PTR [edx+eax*4], 0
	mov	ecx, DWORD PTR _k$[ebp]
	add	ecx, 1
	mov	DWORD PTR _k$[ebp], ecx

; 752  : 					table[j][k++] = 0;

	mov	eax, DWORD PTR _j$[ebp]
	mov	ecx, DWORD PTR _table$[ebp]
	mov	edx, DWORD PTR [ecx+eax*4]
	mov	eax, DWORD PTR _k$[ebp]
	mov	DWORD PTR [edx+eax*4], 0
	mov	ecx, DWORD PTR _k$[ebp]
	add	ecx, 1
	mov	DWORD PTR _k$[ebp], ecx

; 753  : 					table[j++][k] = 0;

	mov	eax, DWORD PTR _j$[ebp]
	mov	ecx, DWORD PTR _table$[ebp]
	mov	edx, DWORD PTR [ecx+eax*4]
	mov	eax, DWORD PTR _k$[ebp]
	mov	DWORD PTR [edx+eax*4], 0
	mov	ecx, DWORD PTR _j$[ebp]
	add	ecx, 1
	mov	DWORD PTR _j$[ebp], ecx

; 754  : 					table[j][k--] = 0;

	mov	eax, DWORD PTR _j$[ebp]
	mov	ecx, DWORD PTR _table$[ebp]
	mov	edx, DWORD PTR [ecx+eax*4]
	mov	eax, DWORD PTR _k$[ebp]
	mov	DWORD PTR [edx+eax*4], 0
	mov	ecx, DWORD PTR _k$[ebp]
	sub	ecx, 1
	mov	DWORD PTR _k$[ebp], ecx

; 755  : 					table[j++][k] = 0;

	mov	eax, DWORD PTR _j$[ebp]
	mov	ecx, DWORD PTR _table$[ebp]
	mov	edx, DWORD PTR [ecx+eax*4]
	mov	eax, DWORD PTR _k$[ebp]
	mov	DWORD PTR [edx+eax*4], 0
	mov	ecx, DWORD PTR _j$[ebp]
	add	ecx, 1
	mov	DWORD PTR _j$[ebp], ecx

; 756  : 					table[j][k++] = 0;

	mov	eax, DWORD PTR _j$[ebp]
	mov	ecx, DWORD PTR _table$[ebp]
	mov	edx, DWORD PTR [ecx+eax*4]
	mov	eax, DWORD PTR _k$[ebp]
	mov	DWORD PTR [edx+eax*4], 0
	mov	ecx, DWORD PTR _k$[ebp]
	add	ecx, 1
	mov	DWORD PTR _k$[ebp], ecx

; 757  : 					table[j][k] = 0;

	mov	eax, DWORD PTR _j$[ebp]
	mov	ecx, DWORD PTR _table$[ebp]
	mov	edx, DWORD PTR [ecx+eax*4]
	mov	eax, DWORD PTR _k$[ebp]
	mov	DWORD PTR [edx+eax*4], 0

; 758  : 
; 759  : 					*sum += 9;

	mov	eax, DWORD PTR _sum$[ebp]
	mov	ecx, DWORD PTR [eax]
	add	ecx, 9
	mov	edx, DWORD PTR _sum$[ebp]
	mov	DWORD PTR [edx], ecx

; 760  : 					if (f == 37) {

	cmp	DWORD PTR _f$[ebp], 37			; 00000025H
	jne	SHORT $LN90@cub_9

; 761  : 						K++;

	mov	eax, DWORD PTR _K$[ebp]
	add	eax, 1
	mov	DWORD PTR _K$[ebp], eax

; 762  : 						k++;

	mov	eax, DWORD PTR _k$[ebp]
	add	eax, 1
	mov	DWORD PTR _k$[ebp], eax

; 763  : 					}

	jmp	SHORT $LN83@cub_9
$LN90@cub_9:

; 764  : 					else {
; 765  : 						J++;

	mov	eax, DWORD PTR _J$[ebp]
	add	eax, 1
	mov	DWORD PTR _J$[ebp], eax

; 766  : 						j++;

	mov	eax, DWORD PTR _j$[ebp]
	add	eax, 1
	mov	DWORD PTR _j$[ebp], eax
$LN83@cub_9:

; 767  : 					}
; 768  : 				}
; 769  : 			}
; 770  : 			if (table[0][n - 1] != n * n && flag == 47 && K != 0 && tab[J][K - 1] - tab[J][K] == 1) {

	mov	eax, 4
	imul	ecx, eax, 0
	mov	edx, DWORD PTR _table$[ebp]
	mov	eax, DWORD PTR [edx+ecx]
	mov	ecx, DWORD PTR _n$[ebp]
	imul	ecx, DWORD PTR _n$[ebp]
	mov	edx, DWORD PTR _n$[ebp]
	cmp	DWORD PTR [eax+edx*4-4], ecx
	je	$LN92@cub_9
	cmp	DWORD PTR _flag$[ebp], 47		; 0000002fH
	jne	$LN92@cub_9
	cmp	DWORD PTR _K$[ebp], 0
	je	$LN92@cub_9
	mov	eax, DWORD PTR _J$[ebp]
	mov	ecx, DWORD PTR _tab$[ebp]
	mov	edx, DWORD PTR [ecx+eax*4]
	mov	eax, DWORD PTR _J$[ebp]
	mov	ecx, DWORD PTR _tab$[ebp]
	mov	eax, DWORD PTR [ecx+eax*4]
	mov	ecx, DWORD PTR _K$[ebp]
	mov	esi, DWORD PTR _K$[ebp]
	mov	edx, DWORD PTR [edx+ecx*4-4]
	sub	edx, DWORD PTR [eax+esi*4]
	cmp	edx, 1
	jne	$LN92@cub_9

; 771  : 				k--;

	mov	eax, DWORD PTR _k$[ebp]
	sub	eax, 1
	mov	DWORD PTR _k$[ebp], eax

; 772  : 				K--;

	mov	eax, DWORD PTR _K$[ebp]
	sub	eax, 1
	mov	DWORD PTR _K$[ebp], eax

; 773  : 				////c_7(table, &i, &j, &k);
; 774  : 
; 775  : 				table[j][k--] = i++;

	mov	eax, DWORD PTR _j$[ebp]
	mov	ecx, DWORD PTR _table$[ebp]
	mov	edx, DWORD PTR [ecx+eax*4]
	mov	eax, DWORD PTR _k$[ebp]
	mov	ecx, DWORD PTR _i$[ebp]
	mov	DWORD PTR [edx+eax*4], ecx
	mov	edx, DWORD PTR _k$[ebp]
	sub	edx, 1
	mov	DWORD PTR _k$[ebp], edx
	mov	eax, DWORD PTR _i$[ebp]
	add	eax, 1
	mov	DWORD PTR _i$[ebp], eax

; 776  : 				table[j--][k] = i++;

	mov	eax, DWORD PTR _j$[ebp]
	mov	ecx, DWORD PTR _table$[ebp]
	mov	edx, DWORD PTR [ecx+eax*4]
	mov	eax, DWORD PTR _k$[ebp]
	mov	ecx, DWORD PTR _i$[ebp]
	mov	DWORD PTR [edx+eax*4], ecx
	mov	edx, DWORD PTR _j$[ebp]
	sub	edx, 1
	mov	DWORD PTR _j$[ebp], edx
	mov	eax, DWORD PTR _i$[ebp]
	add	eax, 1
	mov	DWORD PTR _i$[ebp], eax

; 777  : 				table[j][k++] = i++;

	mov	eax, DWORD PTR _j$[ebp]
	mov	ecx, DWORD PTR _table$[ebp]
	mov	edx, DWORD PTR [ecx+eax*4]
	mov	eax, DWORD PTR _k$[ebp]
	mov	ecx, DWORD PTR _i$[ebp]
	mov	DWORD PTR [edx+eax*4], ecx
	mov	edx, DWORD PTR _k$[ebp]
	add	edx, 1
	mov	DWORD PTR _k$[ebp], edx
	mov	eax, DWORD PTR _i$[ebp]
	add	eax, 1
	mov	DWORD PTR _i$[ebp], eax

; 778  : 				table[j--][k] = i++;

	mov	eax, DWORD PTR _j$[ebp]
	mov	ecx, DWORD PTR _table$[ebp]
	mov	edx, DWORD PTR [ecx+eax*4]
	mov	eax, DWORD PTR _k$[ebp]
	mov	ecx, DWORD PTR _i$[ebp]
	mov	DWORD PTR [edx+eax*4], ecx
	mov	edx, DWORD PTR _j$[ebp]
	sub	edx, 1
	mov	DWORD PTR _j$[ebp], edx
	mov	eax, DWORD PTR _i$[ebp]
	add	eax, 1
	mov	DWORD PTR _i$[ebp], eax

; 779  : 				table[j][k--] = i++;

	mov	eax, DWORD PTR _j$[ebp]
	mov	ecx, DWORD PTR _table$[ebp]
	mov	edx, DWORD PTR [ecx+eax*4]
	mov	eax, DWORD PTR _k$[ebp]
	mov	ecx, DWORD PTR _i$[ebp]
	mov	DWORD PTR [edx+eax*4], ecx
	mov	edx, DWORD PTR _k$[ebp]
	sub	edx, 1
	mov	DWORD PTR _k$[ebp], edx
	mov	eax, DWORD PTR _i$[ebp]
	add	eax, 1
	mov	DWORD PTR _i$[ebp], eax

; 780  : 				table[j][k--] = i++;

	mov	eax, DWORD PTR _j$[ebp]
	mov	ecx, DWORD PTR _table$[ebp]
	mov	edx, DWORD PTR [ecx+eax*4]
	mov	eax, DWORD PTR _k$[ebp]
	mov	ecx, DWORD PTR _i$[ebp]
	mov	DWORD PTR [edx+eax*4], ecx
	mov	edx, DWORD PTR _k$[ebp]
	sub	edx, 1
	mov	DWORD PTR _k$[ebp], edx
	mov	eax, DWORD PTR _i$[ebp]
	add	eax, 1
	mov	DWORD PTR _i$[ebp], eax

; 781  : 				table[j++][k] = i++;

	mov	eax, DWORD PTR _j$[ebp]
	mov	ecx, DWORD PTR _table$[ebp]
	mov	edx, DWORD PTR [ecx+eax*4]
	mov	eax, DWORD PTR _k$[ebp]
	mov	ecx, DWORD PTR _i$[ebp]
	mov	DWORD PTR [edx+eax*4], ecx
	mov	edx, DWORD PTR _j$[ebp]
	add	edx, 1
	mov	DWORD PTR _j$[ebp], edx
	mov	eax, DWORD PTR _i$[ebp]
	add	eax, 1
	mov	DWORD PTR _i$[ebp], eax

; 782  : 				table[j++][k] = i++;

	mov	eax, DWORD PTR _j$[ebp]
	mov	ecx, DWORD PTR _table$[ebp]
	mov	edx, DWORD PTR [ecx+eax*4]
	mov	eax, DWORD PTR _k$[ebp]
	mov	ecx, DWORD PTR _i$[ebp]
	mov	DWORD PTR [edx+eax*4], ecx
	mov	edx, DWORD PTR _j$[ebp]
	add	edx, 1
	mov	DWORD PTR _j$[ebp], edx
	mov	eax, DWORD PTR _i$[ebp]
	add	eax, 1
	mov	DWORD PTR _i$[ebp], eax

; 783  : 				table[j][k] = i++;

	mov	eax, DWORD PTR _j$[ebp]
	mov	ecx, DWORD PTR _table$[ebp]
	mov	edx, DWORD PTR [ecx+eax*4]
	mov	eax, DWORD PTR _k$[ebp]
	mov	ecx, DWORD PTR _i$[ebp]
	mov	DWORD PTR [edx+eax*4], ecx
	mov	edx, DWORD PTR _i$[ebp]
	add	edx, 1
	mov	DWORD PTR _i$[ebp], edx

; 784  : 
; 785  : 				*sum -= 9;

	mov	eax, DWORD PTR _sum$[ebp]
	mov	ecx, DWORD PTR [eax]
	sub	ecx, 9
	mov	edx, DWORD PTR _sum$[ebp]
	mov	DWORD PTR [edx], ecx

; 786  : 				int result = cub_9(table, 17, i, j, k, n, sum, tab, I, J, K);

	mov	eax, DWORD PTR _K$[ebp]
	push	eax
	mov	ecx, DWORD PTR _J$[ebp]
	push	ecx
	mov	edx, DWORD PTR _I$[ebp]
	push	edx
	mov	eax, DWORD PTR _tab$[ebp]
	push	eax
	mov	ecx, DWORD PTR _sum$[ebp]
	push	ecx
	mov	edx, DWORD PTR _n$[ebp]
	push	edx
	mov	eax, DWORD PTR _k$[ebp]
	push	eax
	mov	ecx, DWORD PTR _j$[ebp]
	push	ecx
	mov	edx, DWORD PTR _i$[ebp]
	push	edx
	push	17					; 00000011H
	mov	eax, DWORD PTR _table$[ebp]
	push	eax
	call	?cub_9@@YAHPAPAHHHHHHPAH0HHH@Z		; cub_9
	add	esp, 44					; 0000002cH
	mov	DWORD PTR _result$49[ebp], eax

; 787  : 				if (result == -1 && table[0][n - 1] != n*n) {

	cmp	DWORD PTR _result$49[ebp], -1
	jne	$LN92@cub_9
	mov	eax, 4
	imul	ecx, eax, 0
	mov	edx, DWORD PTR _table$[ebp]
	mov	eax, DWORD PTR [edx+ecx]
	mov	ecx, DWORD PTR _n$[ebp]
	imul	ecx, DWORD PTR _n$[ebp]
	mov	edx, DWORD PTR _n$[ebp]
	cmp	DWORD PTR [eax+edx*4-4], ecx
	je	$LN92@cub_9

; 788  : 					////c_77(table, &i, &j, &k);
; 789  : 
; 790  : 					i = i - 9;

	mov	eax, DWORD PTR _i$[ebp]
	sub	eax, 9
	mov	DWORD PTR _i$[ebp], eax

; 791  : 					table[j--][k] = 0;

	mov	eax, DWORD PTR _j$[ebp]
	mov	ecx, DWORD PTR _table$[ebp]
	mov	edx, DWORD PTR [ecx+eax*4]
	mov	eax, DWORD PTR _k$[ebp]
	mov	DWORD PTR [edx+eax*4], 0
	mov	ecx, DWORD PTR _j$[ebp]
	sub	ecx, 1
	mov	DWORD PTR _j$[ebp], ecx

; 792  : 					table[j--][k] = 0;

	mov	eax, DWORD PTR _j$[ebp]
	mov	ecx, DWORD PTR _table$[ebp]
	mov	edx, DWORD PTR [ecx+eax*4]
	mov	eax, DWORD PTR _k$[ebp]
	mov	DWORD PTR [edx+eax*4], 0
	mov	ecx, DWORD PTR _j$[ebp]
	sub	ecx, 1
	mov	DWORD PTR _j$[ebp], ecx

; 793  : 					table[j][k++] = 0;

	mov	eax, DWORD PTR _j$[ebp]
	mov	ecx, DWORD PTR _table$[ebp]
	mov	edx, DWORD PTR [ecx+eax*4]
	mov	eax, DWORD PTR _k$[ebp]
	mov	DWORD PTR [edx+eax*4], 0
	mov	ecx, DWORD PTR _k$[ebp]
	add	ecx, 1
	mov	DWORD PTR _k$[ebp], ecx

; 794  : 					table[j][k++] = 0;

	mov	eax, DWORD PTR _j$[ebp]
	mov	ecx, DWORD PTR _table$[ebp]
	mov	edx, DWORD PTR [ecx+eax*4]
	mov	eax, DWORD PTR _k$[ebp]
	mov	DWORD PTR [edx+eax*4], 0
	mov	ecx, DWORD PTR _k$[ebp]
	add	ecx, 1
	mov	DWORD PTR _k$[ebp], ecx

; 795  : 					table[j++][k] = 0;

	mov	eax, DWORD PTR _j$[ebp]
	mov	ecx, DWORD PTR _table$[ebp]
	mov	edx, DWORD PTR [ecx+eax*4]
	mov	eax, DWORD PTR _k$[ebp]
	mov	DWORD PTR [edx+eax*4], 0
	mov	ecx, DWORD PTR _j$[ebp]
	add	ecx, 1
	mov	DWORD PTR _j$[ebp], ecx

; 796  : 					table[j][k--] = 0;

	mov	eax, DWORD PTR _j$[ebp]
	mov	ecx, DWORD PTR _table$[ebp]
	mov	edx, DWORD PTR [ecx+eax*4]
	mov	eax, DWORD PTR _k$[ebp]
	mov	DWORD PTR [edx+eax*4], 0
	mov	ecx, DWORD PTR _k$[ebp]
	sub	ecx, 1
	mov	DWORD PTR _k$[ebp], ecx

; 797  : 					table[j++][k] = 0;

	mov	eax, DWORD PTR _j$[ebp]
	mov	ecx, DWORD PTR _table$[ebp]
	mov	edx, DWORD PTR [ecx+eax*4]
	mov	eax, DWORD PTR _k$[ebp]
	mov	DWORD PTR [edx+eax*4], 0
	mov	ecx, DWORD PTR _j$[ebp]
	add	ecx, 1
	mov	DWORD PTR _j$[ebp], ecx

; 798  : 					table[j][k++] = 0;

	mov	eax, DWORD PTR _j$[ebp]
	mov	ecx, DWORD PTR _table$[ebp]
	mov	edx, DWORD PTR [ecx+eax*4]
	mov	eax, DWORD PTR _k$[ebp]
	mov	DWORD PTR [edx+eax*4], 0
	mov	ecx, DWORD PTR _k$[ebp]
	add	ecx, 1
	mov	DWORD PTR _k$[ebp], ecx

; 799  : 					table[j][k] = 0;

	mov	eax, DWORD PTR _j$[ebp]
	mov	ecx, DWORD PTR _table$[ebp]
	mov	edx, DWORD PTR [ecx+eax*4]
	mov	eax, DWORD PTR _k$[ebp]
	mov	DWORD PTR [edx+eax*4], 0

; 800  : 
; 801  : 					*sum += 9;

	mov	eax, DWORD PTR _sum$[ebp]
	mov	ecx, DWORD PTR [eax]
	add	ecx, 9
	mov	edx, DWORD PTR _sum$[ebp]
	mov	DWORD PTR [edx], ecx

; 802  : 					k++;

	mov	eax, DWORD PTR _k$[ebp]
	add	eax, 1
	mov	DWORD PTR _k$[ebp], eax

; 803  : 					K++;

	mov	eax, DWORD PTR _K$[ebp]
	add	eax, 1
	mov	DWORD PTR _K$[ebp], eax
$LN92@cub_9:

; 804  : 				}
; 805  : 			}
; 806  : 
; 807  : 			//зигзаги
; 808  : 			if (table[0][n - 1] != n * n && flag == 17 && J != n / 3 - 1 && tab[J + 1][K] - tab[J][K] == 1) {

	mov	eax, 4
	imul	ecx, eax, 0
	mov	edx, DWORD PTR _table$[ebp]
	mov	eax, DWORD PTR [edx+ecx]
	mov	ecx, DWORD PTR _n$[ebp]
	imul	ecx, DWORD PTR _n$[ebp]
	mov	edx, DWORD PTR _n$[ebp]
	cmp	DWORD PTR [eax+edx*4-4], ecx
	je	$LN94@cub_9
	cmp	DWORD PTR _flag$[ebp], 17		; 00000011H
	jne	$LN94@cub_9
	mov	eax, DWORD PTR _n$[ebp]
	cdq
	mov	ecx, 3
	idiv	ecx
	sub	eax, 1
	cmp	DWORD PTR _J$[ebp], eax
	je	$LN94@cub_9
	mov	eax, DWORD PTR _J$[ebp]
	mov	ecx, DWORD PTR _tab$[ebp]
	mov	edx, DWORD PTR [ecx+eax*4+4]
	mov	eax, DWORD PTR _J$[ebp]
	mov	ecx, DWORD PTR _tab$[ebp]
	mov	eax, DWORD PTR [ecx+eax*4]
	mov	ecx, DWORD PTR _K$[ebp]
	mov	esi, DWORD PTR _K$[ebp]
	mov	edx, DWORD PTR [edx+ecx*4]
	sub	edx, DWORD PTR [eax+esi*4]
	cmp	edx, 1
	jne	$LN94@cub_9

; 809  : 				j++;

	mov	eax, DWORD PTR _j$[ebp]
	add	eax, 1
	mov	DWORD PTR _j$[ebp], eax

; 810  : 				J++;

	mov	eax, DWORD PTR _J$[ebp]
	add	eax, 1
	mov	DWORD PTR _J$[ebp], eax

; 811  : 				//zzHOR_1(table, &i, &j, &k);
; 812  : 
; 813  : 				table[j][k++] = i++;

	mov	eax, DWORD PTR _j$[ebp]
	mov	ecx, DWORD PTR _table$[ebp]
	mov	edx, DWORD PTR [ecx+eax*4]
	mov	eax, DWORD PTR _k$[ebp]
	mov	ecx, DWORD PTR _i$[ebp]
	mov	DWORD PTR [edx+eax*4], ecx
	mov	edx, DWORD PTR _k$[ebp]
	add	edx, 1
	mov	DWORD PTR _k$[ebp], edx
	mov	eax, DWORD PTR _i$[ebp]
	add	eax, 1
	mov	DWORD PTR _i$[ebp], eax

; 814  : 				table[j][k++] = i++;

	mov	eax, DWORD PTR _j$[ebp]
	mov	ecx, DWORD PTR _table$[ebp]
	mov	edx, DWORD PTR [ecx+eax*4]
	mov	eax, DWORD PTR _k$[ebp]
	mov	ecx, DWORD PTR _i$[ebp]
	mov	DWORD PTR [edx+eax*4], ecx
	mov	edx, DWORD PTR _k$[ebp]
	add	edx, 1
	mov	DWORD PTR _k$[ebp], edx
	mov	eax, DWORD PTR _i$[ebp]
	add	eax, 1
	mov	DWORD PTR _i$[ebp], eax

; 815  : 				table[j++][k] = i++;

	mov	eax, DWORD PTR _j$[ebp]
	mov	ecx, DWORD PTR _table$[ebp]
	mov	edx, DWORD PTR [ecx+eax*4]
	mov	eax, DWORD PTR _k$[ebp]
	mov	ecx, DWORD PTR _i$[ebp]
	mov	DWORD PTR [edx+eax*4], ecx
	mov	edx, DWORD PTR _j$[ebp]
	add	edx, 1
	mov	DWORD PTR _j$[ebp], edx
	mov	eax, DWORD PTR _i$[ebp]
	add	eax, 1
	mov	DWORD PTR _i$[ebp], eax

; 816  : 				table[j][k--] = i++;

	mov	eax, DWORD PTR _j$[ebp]
	mov	ecx, DWORD PTR _table$[ebp]
	mov	edx, DWORD PTR [ecx+eax*4]
	mov	eax, DWORD PTR _k$[ebp]
	mov	ecx, DWORD PTR _i$[ebp]
	mov	DWORD PTR [edx+eax*4], ecx
	mov	edx, DWORD PTR _k$[ebp]
	sub	edx, 1
	mov	DWORD PTR _k$[ebp], edx
	mov	eax, DWORD PTR _i$[ebp]
	add	eax, 1
	mov	DWORD PTR _i$[ebp], eax

; 817  : 				table[j][k--] = i++;

	mov	eax, DWORD PTR _j$[ebp]
	mov	ecx, DWORD PTR _table$[ebp]
	mov	edx, DWORD PTR [ecx+eax*4]
	mov	eax, DWORD PTR _k$[ebp]
	mov	ecx, DWORD PTR _i$[ebp]
	mov	DWORD PTR [edx+eax*4], ecx
	mov	edx, DWORD PTR _k$[ebp]
	sub	edx, 1
	mov	DWORD PTR _k$[ebp], edx
	mov	eax, DWORD PTR _i$[ebp]
	add	eax, 1
	mov	DWORD PTR _i$[ebp], eax

; 818  : 				table[j++][k] = i++;

	mov	eax, DWORD PTR _j$[ebp]
	mov	ecx, DWORD PTR _table$[ebp]
	mov	edx, DWORD PTR [ecx+eax*4]
	mov	eax, DWORD PTR _k$[ebp]
	mov	ecx, DWORD PTR _i$[ebp]
	mov	DWORD PTR [edx+eax*4], ecx
	mov	edx, DWORD PTR _j$[ebp]
	add	edx, 1
	mov	DWORD PTR _j$[ebp], edx
	mov	eax, DWORD PTR _i$[ebp]
	add	eax, 1
	mov	DWORD PTR _i$[ebp], eax

; 819  : 				table[j][k++] = i++;

	mov	eax, DWORD PTR _j$[ebp]
	mov	ecx, DWORD PTR _table$[ebp]
	mov	edx, DWORD PTR [ecx+eax*4]
	mov	eax, DWORD PTR _k$[ebp]
	mov	ecx, DWORD PTR _i$[ebp]
	mov	DWORD PTR [edx+eax*4], ecx
	mov	edx, DWORD PTR _k$[ebp]
	add	edx, 1
	mov	DWORD PTR _k$[ebp], edx
	mov	eax, DWORD PTR _i$[ebp]
	add	eax, 1
	mov	DWORD PTR _i$[ebp], eax

; 820  : 				table[j][k++] = i++;

	mov	eax, DWORD PTR _j$[ebp]
	mov	ecx, DWORD PTR _table$[ebp]
	mov	edx, DWORD PTR [ecx+eax*4]
	mov	eax, DWORD PTR _k$[ebp]
	mov	ecx, DWORD PTR _i$[ebp]
	mov	DWORD PTR [edx+eax*4], ecx
	mov	edx, DWORD PTR _k$[ebp]
	add	edx, 1
	mov	DWORD PTR _k$[ebp], edx
	mov	eax, DWORD PTR _i$[ebp]
	add	eax, 1
	mov	DWORD PTR _i$[ebp], eax

; 821  : 				table[j][k] = i++;

	mov	eax, DWORD PTR _j$[ebp]
	mov	ecx, DWORD PTR _table$[ebp]
	mov	edx, DWORD PTR [ecx+eax*4]
	mov	eax, DWORD PTR _k$[ebp]
	mov	ecx, DWORD PTR _i$[ebp]
	mov	DWORD PTR [edx+eax*4], ecx
	mov	edx, DWORD PTR _i$[ebp]
	add	edx, 1
	mov	DWORD PTR _i$[ebp], edx

; 822  : 
; 823  : 				*sum -= 9;

	mov	eax, DWORD PTR _sum$[ebp]
	mov	ecx, DWORD PTR [eax]
	sub	ecx, 9
	mov	edx, DWORD PTR _sum$[ebp]
	mov	DWORD PTR [edx], ecx

; 824  : 				int result = cub_9(table, 39, i, j, k, n, sum, tab, I, J, K);

	mov	eax, DWORD PTR _K$[ebp]
	push	eax
	mov	ecx, DWORD PTR _J$[ebp]
	push	ecx
	mov	edx, DWORD PTR _I$[ebp]
	push	edx
	mov	eax, DWORD PTR _tab$[ebp]
	push	eax
	mov	ecx, DWORD PTR _sum$[ebp]
	push	ecx
	mov	edx, DWORD PTR _n$[ebp]
	push	edx
	mov	eax, DWORD PTR _k$[ebp]
	push	eax
	mov	ecx, DWORD PTR _j$[ebp]
	push	ecx
	mov	edx, DWORD PTR _i$[ebp]
	push	edx
	push	39					; 00000027H
	mov	eax, DWORD PTR _table$[ebp]
	push	eax
	call	?cub_9@@YAHPAPAHHHHHHPAH0HHH@Z		; cub_9
	add	esp, 44					; 0000002cH
	mov	DWORD PTR _result$48[ebp], eax

; 825  : 				if (result == -1 && table[0][n - 1] != n*n) {

	cmp	DWORD PTR _result$48[ebp], -1
	jne	$LN94@cub_9
	mov	eax, 4
	imul	ecx, eax, 0
	mov	edx, DWORD PTR _table$[ebp]
	mov	eax, DWORD PTR [edx+ecx]
	mov	ecx, DWORD PTR _n$[ebp]
	imul	ecx, DWORD PTR _n$[ebp]
	mov	edx, DWORD PTR _n$[ebp]
	cmp	DWORD PTR [eax+edx*4-4], ecx
	je	$LN94@cub_9

; 826  : 					////zzHOR_11(table, &i, &j, &k);
; 827  : 
; 828  : 					i = i - 9;

	mov	eax, DWORD PTR _i$[ebp]
	sub	eax, 9
	mov	DWORD PTR _i$[ebp], eax

; 829  : 					table[j][k--] = 0;

	mov	eax, DWORD PTR _j$[ebp]
	mov	ecx, DWORD PTR _table$[ebp]
	mov	edx, DWORD PTR [ecx+eax*4]
	mov	eax, DWORD PTR _k$[ebp]
	mov	DWORD PTR [edx+eax*4], 0
	mov	ecx, DWORD PTR _k$[ebp]
	sub	ecx, 1
	mov	DWORD PTR _k$[ebp], ecx

; 830  : 					table[j][k--] = 0;

	mov	eax, DWORD PTR _j$[ebp]
	mov	ecx, DWORD PTR _table$[ebp]
	mov	edx, DWORD PTR [ecx+eax*4]
	mov	eax, DWORD PTR _k$[ebp]
	mov	DWORD PTR [edx+eax*4], 0
	mov	ecx, DWORD PTR _k$[ebp]
	sub	ecx, 1
	mov	DWORD PTR _k$[ebp], ecx

; 831  : 					table[j--][k] = 0;

	mov	eax, DWORD PTR _j$[ebp]
	mov	ecx, DWORD PTR _table$[ebp]
	mov	edx, DWORD PTR [ecx+eax*4]
	mov	eax, DWORD PTR _k$[ebp]
	mov	DWORD PTR [edx+eax*4], 0
	mov	ecx, DWORD PTR _j$[ebp]
	sub	ecx, 1
	mov	DWORD PTR _j$[ebp], ecx

; 832  : 					table[j][k++] = 0;

	mov	eax, DWORD PTR _j$[ebp]
	mov	ecx, DWORD PTR _table$[ebp]
	mov	edx, DWORD PTR [ecx+eax*4]
	mov	eax, DWORD PTR _k$[ebp]
	mov	DWORD PTR [edx+eax*4], 0
	mov	ecx, DWORD PTR _k$[ebp]
	add	ecx, 1
	mov	DWORD PTR _k$[ebp], ecx

; 833  : 					table[j][k++] = 0;

	mov	eax, DWORD PTR _j$[ebp]
	mov	ecx, DWORD PTR _table$[ebp]
	mov	edx, DWORD PTR [ecx+eax*4]
	mov	eax, DWORD PTR _k$[ebp]
	mov	DWORD PTR [edx+eax*4], 0
	mov	ecx, DWORD PTR _k$[ebp]
	add	ecx, 1
	mov	DWORD PTR _k$[ebp], ecx

; 834  : 					table[j--][k] = 0;

	mov	eax, DWORD PTR _j$[ebp]
	mov	ecx, DWORD PTR _table$[ebp]
	mov	edx, DWORD PTR [ecx+eax*4]
	mov	eax, DWORD PTR _k$[ebp]
	mov	DWORD PTR [edx+eax*4], 0
	mov	ecx, DWORD PTR _j$[ebp]
	sub	ecx, 1
	mov	DWORD PTR _j$[ebp], ecx

; 835  : 					table[j][k--] = 0;

	mov	eax, DWORD PTR _j$[ebp]
	mov	ecx, DWORD PTR _table$[ebp]
	mov	edx, DWORD PTR [ecx+eax*4]
	mov	eax, DWORD PTR _k$[ebp]
	mov	DWORD PTR [edx+eax*4], 0
	mov	ecx, DWORD PTR _k$[ebp]
	sub	ecx, 1
	mov	DWORD PTR _k$[ebp], ecx

; 836  : 					table[j][k--] = 0;

	mov	eax, DWORD PTR _j$[ebp]
	mov	ecx, DWORD PTR _table$[ebp]
	mov	edx, DWORD PTR [ecx+eax*4]
	mov	eax, DWORD PTR _k$[ebp]
	mov	DWORD PTR [edx+eax*4], 0
	mov	ecx, DWORD PTR _k$[ebp]
	sub	ecx, 1
	mov	DWORD PTR _k$[ebp], ecx

; 837  : 					table[j][k] = 0;

	mov	eax, DWORD PTR _j$[ebp]
	mov	ecx, DWORD PTR _table$[ebp]
	mov	edx, DWORD PTR [ecx+eax*4]
	mov	eax, DWORD PTR _k$[ebp]
	mov	DWORD PTR [edx+eax*4], 0

; 838  : 
; 839  : 					*sum += 9;

	mov	eax, DWORD PTR _sum$[ebp]
	mov	ecx, DWORD PTR [eax]
	add	ecx, 9
	mov	edx, DWORD PTR _sum$[ebp]
	mov	DWORD PTR [edx], ecx

; 840  : 					j--;

	mov	eax, DWORD PTR _j$[ebp]
	sub	eax, 1
	mov	DWORD PTR _j$[ebp], eax

; 841  : 					J--;

	mov	eax, DWORD PTR _J$[ebp]
	sub	eax, 1
	mov	DWORD PTR _J$[ebp], eax
$LN94@cub_9:

; 842  : 				}
; 843  : 			}
; 844  : 			if (table[0][n - 1] != n * n && flag == 11 && J != 0 && tab[J - 1][K] - tab[J][K] == 1) {

	mov	eax, 4
	imul	ecx, eax, 0
	mov	edx, DWORD PTR _table$[ebp]
	mov	eax, DWORD PTR [edx+ecx]
	mov	ecx, DWORD PTR _n$[ebp]
	imul	ecx, DWORD PTR _n$[ebp]
	mov	edx, DWORD PTR _n$[ebp]
	cmp	DWORD PTR [eax+edx*4-4], ecx
	je	$LN96@cub_9
	cmp	DWORD PTR _flag$[ebp], 11		; 0000000bH
	jne	$LN96@cub_9
	cmp	DWORD PTR _J$[ebp], 0
	je	$LN96@cub_9
	mov	eax, DWORD PTR _J$[ebp]
	mov	ecx, DWORD PTR _tab$[ebp]
	mov	edx, DWORD PTR [ecx+eax*4-4]
	mov	eax, DWORD PTR _J$[ebp]
	mov	ecx, DWORD PTR _tab$[ebp]
	mov	eax, DWORD PTR [ecx+eax*4]
	mov	ecx, DWORD PTR _K$[ebp]
	mov	esi, DWORD PTR _K$[ebp]
	mov	edx, DWORD PTR [edx+ecx*4]
	sub	edx, DWORD PTR [eax+esi*4]
	cmp	edx, 1
	jne	$LN96@cub_9

; 845  : 				j--;

	mov	eax, DWORD PTR _j$[ebp]
	sub	eax, 1
	mov	DWORD PTR _j$[ebp], eax

; 846  : 				J--;

	mov	eax, DWORD PTR _J$[ebp]
	sub	eax, 1
	mov	DWORD PTR _J$[ebp], eax

; 847  : 				//zzHOR_2(table, &i, &j, &k);
; 848  : 
; 849  : 				table[j][k++] = i++;

	mov	eax, DWORD PTR _j$[ebp]
	mov	ecx, DWORD PTR _table$[ebp]
	mov	edx, DWORD PTR [ecx+eax*4]
	mov	eax, DWORD PTR _k$[ebp]
	mov	ecx, DWORD PTR _i$[ebp]
	mov	DWORD PTR [edx+eax*4], ecx
	mov	edx, DWORD PTR _k$[ebp]
	add	edx, 1
	mov	DWORD PTR _k$[ebp], edx
	mov	eax, DWORD PTR _i$[ebp]
	add	eax, 1
	mov	DWORD PTR _i$[ebp], eax

; 850  : 				table[j][k++] = i++;

	mov	eax, DWORD PTR _j$[ebp]
	mov	ecx, DWORD PTR _table$[ebp]
	mov	edx, DWORD PTR [ecx+eax*4]
	mov	eax, DWORD PTR _k$[ebp]
	mov	ecx, DWORD PTR _i$[ebp]
	mov	DWORD PTR [edx+eax*4], ecx
	mov	edx, DWORD PTR _k$[ebp]
	add	edx, 1
	mov	DWORD PTR _k$[ebp], edx
	mov	eax, DWORD PTR _i$[ebp]
	add	eax, 1
	mov	DWORD PTR _i$[ebp], eax

; 851  : 				table[j--][k] = i++;

	mov	eax, DWORD PTR _j$[ebp]
	mov	ecx, DWORD PTR _table$[ebp]
	mov	edx, DWORD PTR [ecx+eax*4]
	mov	eax, DWORD PTR _k$[ebp]
	mov	ecx, DWORD PTR _i$[ebp]
	mov	DWORD PTR [edx+eax*4], ecx
	mov	edx, DWORD PTR _j$[ebp]
	sub	edx, 1
	mov	DWORD PTR _j$[ebp], edx
	mov	eax, DWORD PTR _i$[ebp]
	add	eax, 1
	mov	DWORD PTR _i$[ebp], eax

; 852  : 				table[j][k--] = i++;

	mov	eax, DWORD PTR _j$[ebp]
	mov	ecx, DWORD PTR _table$[ebp]
	mov	edx, DWORD PTR [ecx+eax*4]
	mov	eax, DWORD PTR _k$[ebp]
	mov	ecx, DWORD PTR _i$[ebp]
	mov	DWORD PTR [edx+eax*4], ecx
	mov	edx, DWORD PTR _k$[ebp]
	sub	edx, 1
	mov	DWORD PTR _k$[ebp], edx
	mov	eax, DWORD PTR _i$[ebp]
	add	eax, 1
	mov	DWORD PTR _i$[ebp], eax

; 853  : 				table[j][k--] = i++;

	mov	eax, DWORD PTR _j$[ebp]
	mov	ecx, DWORD PTR _table$[ebp]
	mov	edx, DWORD PTR [ecx+eax*4]
	mov	eax, DWORD PTR _k$[ebp]
	mov	ecx, DWORD PTR _i$[ebp]
	mov	DWORD PTR [edx+eax*4], ecx
	mov	edx, DWORD PTR _k$[ebp]
	sub	edx, 1
	mov	DWORD PTR _k$[ebp], edx
	mov	eax, DWORD PTR _i$[ebp]
	add	eax, 1
	mov	DWORD PTR _i$[ebp], eax

; 854  : 				table[j--][k] = i++;

	mov	eax, DWORD PTR _j$[ebp]
	mov	ecx, DWORD PTR _table$[ebp]
	mov	edx, DWORD PTR [ecx+eax*4]
	mov	eax, DWORD PTR _k$[ebp]
	mov	ecx, DWORD PTR _i$[ebp]
	mov	DWORD PTR [edx+eax*4], ecx
	mov	edx, DWORD PTR _j$[ebp]
	sub	edx, 1
	mov	DWORD PTR _j$[ebp], edx
	mov	eax, DWORD PTR _i$[ebp]
	add	eax, 1
	mov	DWORD PTR _i$[ebp], eax

; 855  : 				table[j][k++] = i++;

	mov	eax, DWORD PTR _j$[ebp]
	mov	ecx, DWORD PTR _table$[ebp]
	mov	edx, DWORD PTR [ecx+eax*4]
	mov	eax, DWORD PTR _k$[ebp]
	mov	ecx, DWORD PTR _i$[ebp]
	mov	DWORD PTR [edx+eax*4], ecx
	mov	edx, DWORD PTR _k$[ebp]
	add	edx, 1
	mov	DWORD PTR _k$[ebp], edx
	mov	eax, DWORD PTR _i$[ebp]
	add	eax, 1
	mov	DWORD PTR _i$[ebp], eax

; 856  : 				table[j][k++] = i++;

	mov	eax, DWORD PTR _j$[ebp]
	mov	ecx, DWORD PTR _table$[ebp]
	mov	edx, DWORD PTR [ecx+eax*4]
	mov	eax, DWORD PTR _k$[ebp]
	mov	ecx, DWORD PTR _i$[ebp]
	mov	DWORD PTR [edx+eax*4], ecx
	mov	edx, DWORD PTR _k$[ebp]
	add	edx, 1
	mov	DWORD PTR _k$[ebp], edx
	mov	eax, DWORD PTR _i$[ebp]
	add	eax, 1
	mov	DWORD PTR _i$[ebp], eax

; 857  : 				table[j][k] = i++;

	mov	eax, DWORD PTR _j$[ebp]
	mov	ecx, DWORD PTR _table$[ebp]
	mov	edx, DWORD PTR [ecx+eax*4]
	mov	eax, DWORD PTR _k$[ebp]
	mov	ecx, DWORD PTR _i$[ebp]
	mov	DWORD PTR [edx+eax*4], ecx
	mov	edx, DWORD PTR _i$[ebp]
	add	edx, 1
	mov	DWORD PTR _i$[ebp], edx

; 858  : 
; 859  : 				*sum -= 9;

	mov	eax, DWORD PTR _sum$[ebp]
	mov	ecx, DWORD PTR [eax]
	sub	ecx, 9
	mov	edx, DWORD PTR _sum$[ebp]
	mov	DWORD PTR [edx], ecx

; 860  : 				int result = cub_9(table, 33, i, j, k, n, sum, tab, I, J, K);

	mov	eax, DWORD PTR _K$[ebp]
	push	eax
	mov	ecx, DWORD PTR _J$[ebp]
	push	ecx
	mov	edx, DWORD PTR _I$[ebp]
	push	edx
	mov	eax, DWORD PTR _tab$[ebp]
	push	eax
	mov	ecx, DWORD PTR _sum$[ebp]
	push	ecx
	mov	edx, DWORD PTR _n$[ebp]
	push	edx
	mov	eax, DWORD PTR _k$[ebp]
	push	eax
	mov	ecx, DWORD PTR _j$[ebp]
	push	ecx
	mov	edx, DWORD PTR _i$[ebp]
	push	edx
	push	33					; 00000021H
	mov	eax, DWORD PTR _table$[ebp]
	push	eax
	call	?cub_9@@YAHPAPAHHHHHHPAH0HHH@Z		; cub_9
	add	esp, 44					; 0000002cH
	mov	DWORD PTR _result$47[ebp], eax

; 861  : 				if (result == -1 && table[0][n - 1] != n*n) {

	cmp	DWORD PTR _result$47[ebp], -1
	jne	$LN96@cub_9
	mov	eax, 4
	imul	ecx, eax, 0
	mov	edx, DWORD PTR _table$[ebp]
	mov	eax, DWORD PTR [edx+ecx]
	mov	ecx, DWORD PTR _n$[ebp]
	imul	ecx, DWORD PTR _n$[ebp]
	mov	edx, DWORD PTR _n$[ebp]
	cmp	DWORD PTR [eax+edx*4-4], ecx
	je	$LN96@cub_9

; 862  : 					//zzHOR_22(table, &i, &j, &k);
; 863  : 
; 864  : 					i = i - 9;

	mov	eax, DWORD PTR _i$[ebp]
	sub	eax, 9
	mov	DWORD PTR _i$[ebp], eax

; 865  : 
; 866  : 					table[j][k--] = 0;

	mov	eax, DWORD PTR _j$[ebp]
	mov	ecx, DWORD PTR _table$[ebp]
	mov	edx, DWORD PTR [ecx+eax*4]
	mov	eax, DWORD PTR _k$[ebp]
	mov	DWORD PTR [edx+eax*4], 0
	mov	ecx, DWORD PTR _k$[ebp]
	sub	ecx, 1
	mov	DWORD PTR _k$[ebp], ecx

; 867  : 					table[j][k--] = 0;

	mov	eax, DWORD PTR _j$[ebp]
	mov	ecx, DWORD PTR _table$[ebp]
	mov	edx, DWORD PTR [ecx+eax*4]
	mov	eax, DWORD PTR _k$[ebp]
	mov	DWORD PTR [edx+eax*4], 0
	mov	ecx, DWORD PTR _k$[ebp]
	sub	ecx, 1
	mov	DWORD PTR _k$[ebp], ecx

; 868  : 					table[j++][k] = 0;

	mov	eax, DWORD PTR _j$[ebp]
	mov	ecx, DWORD PTR _table$[ebp]
	mov	edx, DWORD PTR [ecx+eax*4]
	mov	eax, DWORD PTR _k$[ebp]
	mov	DWORD PTR [edx+eax*4], 0
	mov	ecx, DWORD PTR _j$[ebp]
	add	ecx, 1
	mov	DWORD PTR _j$[ebp], ecx

; 869  : 					table[j][k++] = 0;

	mov	eax, DWORD PTR _j$[ebp]
	mov	ecx, DWORD PTR _table$[ebp]
	mov	edx, DWORD PTR [ecx+eax*4]
	mov	eax, DWORD PTR _k$[ebp]
	mov	DWORD PTR [edx+eax*4], 0
	mov	ecx, DWORD PTR _k$[ebp]
	add	ecx, 1
	mov	DWORD PTR _k$[ebp], ecx

; 870  : 					table[j][k++] = 0;

	mov	eax, DWORD PTR _j$[ebp]
	mov	ecx, DWORD PTR _table$[ebp]
	mov	edx, DWORD PTR [ecx+eax*4]
	mov	eax, DWORD PTR _k$[ebp]
	mov	DWORD PTR [edx+eax*4], 0
	mov	ecx, DWORD PTR _k$[ebp]
	add	ecx, 1
	mov	DWORD PTR _k$[ebp], ecx

; 871  : 					table[j++][k] = 0;

	mov	eax, DWORD PTR _j$[ebp]
	mov	ecx, DWORD PTR _table$[ebp]
	mov	edx, DWORD PTR [ecx+eax*4]
	mov	eax, DWORD PTR _k$[ebp]
	mov	DWORD PTR [edx+eax*4], 0
	mov	ecx, DWORD PTR _j$[ebp]
	add	ecx, 1
	mov	DWORD PTR _j$[ebp], ecx

; 872  : 					table[j][k--] = 0;

	mov	eax, DWORD PTR _j$[ebp]
	mov	ecx, DWORD PTR _table$[ebp]
	mov	edx, DWORD PTR [ecx+eax*4]
	mov	eax, DWORD PTR _k$[ebp]
	mov	DWORD PTR [edx+eax*4], 0
	mov	ecx, DWORD PTR _k$[ebp]
	sub	ecx, 1
	mov	DWORD PTR _k$[ebp], ecx

; 873  : 					table[j][k--] = 0;

	mov	eax, DWORD PTR _j$[ebp]
	mov	ecx, DWORD PTR _table$[ebp]
	mov	edx, DWORD PTR [ecx+eax*4]
	mov	eax, DWORD PTR _k$[ebp]
	mov	DWORD PTR [edx+eax*4], 0
	mov	ecx, DWORD PTR _k$[ebp]
	sub	ecx, 1
	mov	DWORD PTR _k$[ebp], ecx

; 874  : 					table[j][k] = 0;

	mov	eax, DWORD PTR _j$[ebp]
	mov	ecx, DWORD PTR _table$[ebp]
	mov	edx, DWORD PTR [ecx+eax*4]
	mov	eax, DWORD PTR _k$[ebp]
	mov	DWORD PTR [edx+eax*4], 0

; 875  : 
; 876  : 					j++;

	mov	eax, DWORD PTR _j$[ebp]
	add	eax, 1
	mov	DWORD PTR _j$[ebp], eax

; 877  : 					J++;

	mov	eax, DWORD PTR _J$[ebp]
	add	eax, 1
	mov	DWORD PTR _J$[ebp], eax

; 878  : 					*sum += 9;

	mov	eax, DWORD PTR _sum$[ebp]
	mov	ecx, DWORD PTR [eax]
	add	ecx, 9
	mov	edx, DWORD PTR _sum$[ebp]
	mov	DWORD PTR [edx], ecx
$LN96@cub_9:

; 879  : 				}
; 880  : 			}
; 881  : 			if (table[0][n - 1] != n * n && flag == 33 && J != 0 && tab[J - 1][K] - tab[J][K] == 1) {

	mov	eax, 4
	imul	ecx, eax, 0
	mov	edx, DWORD PTR _table$[ebp]
	mov	eax, DWORD PTR [edx+ecx]
	mov	ecx, DWORD PTR _n$[ebp]
	imul	ecx, DWORD PTR _n$[ebp]
	mov	edx, DWORD PTR _n$[ebp]
	cmp	DWORD PTR [eax+edx*4-4], ecx
	je	$LN98@cub_9
	cmp	DWORD PTR _flag$[ebp], 33		; 00000021H
	jne	$LN98@cub_9
	cmp	DWORD PTR _J$[ebp], 0
	je	$LN98@cub_9
	mov	eax, DWORD PTR _J$[ebp]
	mov	ecx, DWORD PTR _tab$[ebp]
	mov	edx, DWORD PTR [ecx+eax*4-4]
	mov	eax, DWORD PTR _J$[ebp]
	mov	ecx, DWORD PTR _tab$[ebp]
	mov	eax, DWORD PTR [ecx+eax*4]
	mov	ecx, DWORD PTR _K$[ebp]
	mov	esi, DWORD PTR _K$[ebp]
	mov	edx, DWORD PTR [edx+ecx*4]
	sub	edx, DWORD PTR [eax+esi*4]
	cmp	edx, 1
	jne	$LN98@cub_9

; 882  : 				j--;

	mov	eax, DWORD PTR _j$[ebp]
	sub	eax, 1
	mov	DWORD PTR _j$[ebp], eax

; 883  : 				J--;

	mov	eax, DWORD PTR _J$[ebp]
	sub	eax, 1
	mov	DWORD PTR _J$[ebp], eax

; 884  : 				//zzHOR_3(table, &i, &j, &k);
; 885  : 
; 886  : 				table[j][k--] = i++;

	mov	eax, DWORD PTR _j$[ebp]
	mov	ecx, DWORD PTR _table$[ebp]
	mov	edx, DWORD PTR [ecx+eax*4]
	mov	eax, DWORD PTR _k$[ebp]
	mov	ecx, DWORD PTR _i$[ebp]
	mov	DWORD PTR [edx+eax*4], ecx
	mov	edx, DWORD PTR _k$[ebp]
	sub	edx, 1
	mov	DWORD PTR _k$[ebp], edx
	mov	eax, DWORD PTR _i$[ebp]
	add	eax, 1
	mov	DWORD PTR _i$[ebp], eax

; 887  : 				table[j][k--] = i++;

	mov	eax, DWORD PTR _j$[ebp]
	mov	ecx, DWORD PTR _table$[ebp]
	mov	edx, DWORD PTR [ecx+eax*4]
	mov	eax, DWORD PTR _k$[ebp]
	mov	ecx, DWORD PTR _i$[ebp]
	mov	DWORD PTR [edx+eax*4], ecx
	mov	edx, DWORD PTR _k$[ebp]
	sub	edx, 1
	mov	DWORD PTR _k$[ebp], edx
	mov	eax, DWORD PTR _i$[ebp]
	add	eax, 1
	mov	DWORD PTR _i$[ebp], eax

; 888  : 				table[j--][k] = i++;

	mov	eax, DWORD PTR _j$[ebp]
	mov	ecx, DWORD PTR _table$[ebp]
	mov	edx, DWORD PTR [ecx+eax*4]
	mov	eax, DWORD PTR _k$[ebp]
	mov	ecx, DWORD PTR _i$[ebp]
	mov	DWORD PTR [edx+eax*4], ecx
	mov	edx, DWORD PTR _j$[ebp]
	sub	edx, 1
	mov	DWORD PTR _j$[ebp], edx
	mov	eax, DWORD PTR _i$[ebp]
	add	eax, 1
	mov	DWORD PTR _i$[ebp], eax

; 889  : 				table[j][k++] = i++;

	mov	eax, DWORD PTR _j$[ebp]
	mov	ecx, DWORD PTR _table$[ebp]
	mov	edx, DWORD PTR [ecx+eax*4]
	mov	eax, DWORD PTR _k$[ebp]
	mov	ecx, DWORD PTR _i$[ebp]
	mov	DWORD PTR [edx+eax*4], ecx
	mov	edx, DWORD PTR _k$[ebp]
	add	edx, 1
	mov	DWORD PTR _k$[ebp], edx
	mov	eax, DWORD PTR _i$[ebp]
	add	eax, 1
	mov	DWORD PTR _i$[ebp], eax

; 890  : 				table[j][k++] = i++;

	mov	eax, DWORD PTR _j$[ebp]
	mov	ecx, DWORD PTR _table$[ebp]
	mov	edx, DWORD PTR [ecx+eax*4]
	mov	eax, DWORD PTR _k$[ebp]
	mov	ecx, DWORD PTR _i$[ebp]
	mov	DWORD PTR [edx+eax*4], ecx
	mov	edx, DWORD PTR _k$[ebp]
	add	edx, 1
	mov	DWORD PTR _k$[ebp], edx
	mov	eax, DWORD PTR _i$[ebp]
	add	eax, 1
	mov	DWORD PTR _i$[ebp], eax

; 891  : 				table[j--][k] = i++;

	mov	eax, DWORD PTR _j$[ebp]
	mov	ecx, DWORD PTR _table$[ebp]
	mov	edx, DWORD PTR [ecx+eax*4]
	mov	eax, DWORD PTR _k$[ebp]
	mov	ecx, DWORD PTR _i$[ebp]
	mov	DWORD PTR [edx+eax*4], ecx
	mov	edx, DWORD PTR _j$[ebp]
	sub	edx, 1
	mov	DWORD PTR _j$[ebp], edx
	mov	eax, DWORD PTR _i$[ebp]
	add	eax, 1
	mov	DWORD PTR _i$[ebp], eax

; 892  : 				table[j][k--] = i++;

	mov	eax, DWORD PTR _j$[ebp]
	mov	ecx, DWORD PTR _table$[ebp]
	mov	edx, DWORD PTR [ecx+eax*4]
	mov	eax, DWORD PTR _k$[ebp]
	mov	ecx, DWORD PTR _i$[ebp]
	mov	DWORD PTR [edx+eax*4], ecx
	mov	edx, DWORD PTR _k$[ebp]
	sub	edx, 1
	mov	DWORD PTR _k$[ebp], edx
	mov	eax, DWORD PTR _i$[ebp]
	add	eax, 1
	mov	DWORD PTR _i$[ebp], eax

; 893  : 				table[j][k--] = i++;

	mov	eax, DWORD PTR _j$[ebp]
	mov	ecx, DWORD PTR _table$[ebp]
	mov	edx, DWORD PTR [ecx+eax*4]
	mov	eax, DWORD PTR _k$[ebp]
	mov	ecx, DWORD PTR _i$[ebp]
	mov	DWORD PTR [edx+eax*4], ecx
	mov	edx, DWORD PTR _k$[ebp]
	sub	edx, 1
	mov	DWORD PTR _k$[ebp], edx
	mov	eax, DWORD PTR _i$[ebp]
	add	eax, 1
	mov	DWORD PTR _i$[ebp], eax

; 894  : 				table[j][k] = i++;

	mov	eax, DWORD PTR _j$[ebp]
	mov	ecx, DWORD PTR _table$[ebp]
	mov	edx, DWORD PTR [ecx+eax*4]
	mov	eax, DWORD PTR _k$[ebp]
	mov	ecx, DWORD PTR _i$[ebp]
	mov	DWORD PTR [edx+eax*4], ecx
	mov	edx, DWORD PTR _i$[ebp]
	add	edx, 1
	mov	DWORD PTR _i$[ebp], edx

; 895  : 
; 896  : 				*sum -= 9;

	mov	eax, DWORD PTR _sum$[ebp]
	mov	ecx, DWORD PTR [eax]
	sub	ecx, 9
	mov	edx, DWORD PTR _sum$[ebp]
	mov	DWORD PTR [edx], ecx

; 897  : 				int result = cub_9(table, 11, i, j, k, n, sum, tab, I, J, K);

	mov	eax, DWORD PTR _K$[ebp]
	push	eax
	mov	ecx, DWORD PTR _J$[ebp]
	push	ecx
	mov	edx, DWORD PTR _I$[ebp]
	push	edx
	mov	eax, DWORD PTR _tab$[ebp]
	push	eax
	mov	ecx, DWORD PTR _sum$[ebp]
	push	ecx
	mov	edx, DWORD PTR _n$[ebp]
	push	edx
	mov	eax, DWORD PTR _k$[ebp]
	push	eax
	mov	ecx, DWORD PTR _j$[ebp]
	push	ecx
	mov	edx, DWORD PTR _i$[ebp]
	push	edx
	push	11					; 0000000bH
	mov	eax, DWORD PTR _table$[ebp]
	push	eax
	call	?cub_9@@YAHPAPAHHHHHHPAH0HHH@Z		; cub_9
	add	esp, 44					; 0000002cH
	mov	DWORD PTR _result$46[ebp], eax

; 898  : 				if (result == -1 && table[0][n - 1] != n*n) {

	cmp	DWORD PTR _result$46[ebp], -1
	jne	$LN98@cub_9
	mov	eax, 4
	imul	ecx, eax, 0
	mov	edx, DWORD PTR _table$[ebp]
	mov	eax, DWORD PTR [edx+ecx]
	mov	ecx, DWORD PTR _n$[ebp]
	imul	ecx, DWORD PTR _n$[ebp]
	mov	edx, DWORD PTR _n$[ebp]
	cmp	DWORD PTR [eax+edx*4-4], ecx
	je	$LN98@cub_9

; 899  : 					//zzHOR_33(table, &i, &j, &k);
; 900  : 
; 901  : 					i = i - 9;

	mov	eax, DWORD PTR _i$[ebp]
	sub	eax, 9
	mov	DWORD PTR _i$[ebp], eax

; 902  : 
; 903  : 					table[j][k++] = 0;

	mov	eax, DWORD PTR _j$[ebp]
	mov	ecx, DWORD PTR _table$[ebp]
	mov	edx, DWORD PTR [ecx+eax*4]
	mov	eax, DWORD PTR _k$[ebp]
	mov	DWORD PTR [edx+eax*4], 0
	mov	ecx, DWORD PTR _k$[ebp]
	add	ecx, 1
	mov	DWORD PTR _k$[ebp], ecx

; 904  : 					table[j][k++] = 0;

	mov	eax, DWORD PTR _j$[ebp]
	mov	ecx, DWORD PTR _table$[ebp]
	mov	edx, DWORD PTR [ecx+eax*4]
	mov	eax, DWORD PTR _k$[ebp]
	mov	DWORD PTR [edx+eax*4], 0
	mov	ecx, DWORD PTR _k$[ebp]
	add	ecx, 1
	mov	DWORD PTR _k$[ebp], ecx

; 905  : 					table[j++][k] = 0;

	mov	eax, DWORD PTR _j$[ebp]
	mov	ecx, DWORD PTR _table$[ebp]
	mov	edx, DWORD PTR [ecx+eax*4]
	mov	eax, DWORD PTR _k$[ebp]
	mov	DWORD PTR [edx+eax*4], 0
	mov	ecx, DWORD PTR _j$[ebp]
	add	ecx, 1
	mov	DWORD PTR _j$[ebp], ecx

; 906  : 					table[j][k--] = 0;

	mov	eax, DWORD PTR _j$[ebp]
	mov	ecx, DWORD PTR _table$[ebp]
	mov	edx, DWORD PTR [ecx+eax*4]
	mov	eax, DWORD PTR _k$[ebp]
	mov	DWORD PTR [edx+eax*4], 0
	mov	ecx, DWORD PTR _k$[ebp]
	sub	ecx, 1
	mov	DWORD PTR _k$[ebp], ecx

; 907  : 					table[j][k--] = 0;

	mov	eax, DWORD PTR _j$[ebp]
	mov	ecx, DWORD PTR _table$[ebp]
	mov	edx, DWORD PTR [ecx+eax*4]
	mov	eax, DWORD PTR _k$[ebp]
	mov	DWORD PTR [edx+eax*4], 0
	mov	ecx, DWORD PTR _k$[ebp]
	sub	ecx, 1
	mov	DWORD PTR _k$[ebp], ecx

; 908  : 					table[j++][k] = 0;

	mov	eax, DWORD PTR _j$[ebp]
	mov	ecx, DWORD PTR _table$[ebp]
	mov	edx, DWORD PTR [ecx+eax*4]
	mov	eax, DWORD PTR _k$[ebp]
	mov	DWORD PTR [edx+eax*4], 0
	mov	ecx, DWORD PTR _j$[ebp]
	add	ecx, 1
	mov	DWORD PTR _j$[ebp], ecx

; 909  : 					table[j][k++] = 0;

	mov	eax, DWORD PTR _j$[ebp]
	mov	ecx, DWORD PTR _table$[ebp]
	mov	edx, DWORD PTR [ecx+eax*4]
	mov	eax, DWORD PTR _k$[ebp]
	mov	DWORD PTR [edx+eax*4], 0
	mov	ecx, DWORD PTR _k$[ebp]
	add	ecx, 1
	mov	DWORD PTR _k$[ebp], ecx

; 910  : 					table[j][k++] = 0;

	mov	eax, DWORD PTR _j$[ebp]
	mov	ecx, DWORD PTR _table$[ebp]
	mov	edx, DWORD PTR [ecx+eax*4]
	mov	eax, DWORD PTR _k$[ebp]
	mov	DWORD PTR [edx+eax*4], 0
	mov	ecx, DWORD PTR _k$[ebp]
	add	ecx, 1
	mov	DWORD PTR _k$[ebp], ecx

; 911  : 					table[j][k] = 0;

	mov	eax, DWORD PTR _j$[ebp]
	mov	ecx, DWORD PTR _table$[ebp]
	mov	edx, DWORD PTR [ecx+eax*4]
	mov	eax, DWORD PTR _k$[ebp]
	mov	DWORD PTR [edx+eax*4], 0

; 912  : 
; 913  : 					j++;

	mov	eax, DWORD PTR _j$[ebp]
	add	eax, 1
	mov	DWORD PTR _j$[ebp], eax

; 914  : 					J++;

	mov	eax, DWORD PTR _J$[ebp]
	add	eax, 1
	mov	DWORD PTR _J$[ebp], eax

; 915  : 					*sum += 9;

	mov	eax, DWORD PTR _sum$[ebp]
	mov	ecx, DWORD PTR [eax]
	add	ecx, 9
	mov	edx, DWORD PTR _sum$[ebp]
	mov	DWORD PTR [edx], ecx
$LN98@cub_9:

; 916  : 				}
; 917  : 			}
; 918  : 			if (table[0][n - 1] != n * n && flag == 39 && J != n / 3 - 1 && tab[J + 1][K] - tab[J][K] == 1) {

	mov	eax, 4
	imul	ecx, eax, 0
	mov	edx, DWORD PTR _table$[ebp]
	mov	eax, DWORD PTR [edx+ecx]
	mov	ecx, DWORD PTR _n$[ebp]
	imul	ecx, DWORD PTR _n$[ebp]
	mov	edx, DWORD PTR _n$[ebp]
	cmp	DWORD PTR [eax+edx*4-4], ecx
	je	$LN100@cub_9
	cmp	DWORD PTR _flag$[ebp], 39		; 00000027H
	jne	$LN100@cub_9
	mov	eax, DWORD PTR _n$[ebp]
	cdq
	mov	ecx, 3
	idiv	ecx
	sub	eax, 1
	cmp	DWORD PTR _J$[ebp], eax
	je	$LN100@cub_9
	mov	eax, DWORD PTR _J$[ebp]
	mov	ecx, DWORD PTR _tab$[ebp]
	mov	edx, DWORD PTR [ecx+eax*4+4]
	mov	eax, DWORD PTR _J$[ebp]
	mov	ecx, DWORD PTR _tab$[ebp]
	mov	eax, DWORD PTR [ecx+eax*4]
	mov	ecx, DWORD PTR _K$[ebp]
	mov	esi, DWORD PTR _K$[ebp]
	mov	edx, DWORD PTR [edx+ecx*4]
	sub	edx, DWORD PTR [eax+esi*4]
	cmp	edx, 1
	jne	$LN100@cub_9

; 919  : 				j++;

	mov	eax, DWORD PTR _j$[ebp]
	add	eax, 1
	mov	DWORD PTR _j$[ebp], eax

; 920  : 				J++;

	mov	eax, DWORD PTR _J$[ebp]
	add	eax, 1
	mov	DWORD PTR _J$[ebp], eax

; 921  : 				//zzHOR_4(table, &i, &j, &k);
; 922  : 
; 923  : 				table[j][k--] = i++;

	mov	eax, DWORD PTR _j$[ebp]
	mov	ecx, DWORD PTR _table$[ebp]
	mov	edx, DWORD PTR [ecx+eax*4]
	mov	eax, DWORD PTR _k$[ebp]
	mov	ecx, DWORD PTR _i$[ebp]
	mov	DWORD PTR [edx+eax*4], ecx
	mov	edx, DWORD PTR _k$[ebp]
	sub	edx, 1
	mov	DWORD PTR _k$[ebp], edx
	mov	eax, DWORD PTR _i$[ebp]
	add	eax, 1
	mov	DWORD PTR _i$[ebp], eax

; 924  : 				table[j][k--] = i++;

	mov	eax, DWORD PTR _j$[ebp]
	mov	ecx, DWORD PTR _table$[ebp]
	mov	edx, DWORD PTR [ecx+eax*4]
	mov	eax, DWORD PTR _k$[ebp]
	mov	ecx, DWORD PTR _i$[ebp]
	mov	DWORD PTR [edx+eax*4], ecx
	mov	edx, DWORD PTR _k$[ebp]
	sub	edx, 1
	mov	DWORD PTR _k$[ebp], edx
	mov	eax, DWORD PTR _i$[ebp]
	add	eax, 1
	mov	DWORD PTR _i$[ebp], eax

; 925  : 				table[j++][k] = i++;

	mov	eax, DWORD PTR _j$[ebp]
	mov	ecx, DWORD PTR _table$[ebp]
	mov	edx, DWORD PTR [ecx+eax*4]
	mov	eax, DWORD PTR _k$[ebp]
	mov	ecx, DWORD PTR _i$[ebp]
	mov	DWORD PTR [edx+eax*4], ecx
	mov	edx, DWORD PTR _j$[ebp]
	add	edx, 1
	mov	DWORD PTR _j$[ebp], edx
	mov	eax, DWORD PTR _i$[ebp]
	add	eax, 1
	mov	DWORD PTR _i$[ebp], eax

; 926  : 				table[j][k++] = i++;

	mov	eax, DWORD PTR _j$[ebp]
	mov	ecx, DWORD PTR _table$[ebp]
	mov	edx, DWORD PTR [ecx+eax*4]
	mov	eax, DWORD PTR _k$[ebp]
	mov	ecx, DWORD PTR _i$[ebp]
	mov	DWORD PTR [edx+eax*4], ecx
	mov	edx, DWORD PTR _k$[ebp]
	add	edx, 1
	mov	DWORD PTR _k$[ebp], edx
	mov	eax, DWORD PTR _i$[ebp]
	add	eax, 1
	mov	DWORD PTR _i$[ebp], eax

; 927  : 				table[j][k++] = i++;

	mov	eax, DWORD PTR _j$[ebp]
	mov	ecx, DWORD PTR _table$[ebp]
	mov	edx, DWORD PTR [ecx+eax*4]
	mov	eax, DWORD PTR _k$[ebp]
	mov	ecx, DWORD PTR _i$[ebp]
	mov	DWORD PTR [edx+eax*4], ecx
	mov	edx, DWORD PTR _k$[ebp]
	add	edx, 1
	mov	DWORD PTR _k$[ebp], edx
	mov	eax, DWORD PTR _i$[ebp]
	add	eax, 1
	mov	DWORD PTR _i$[ebp], eax

; 928  : 				table[j++][k] = i++;

	mov	eax, DWORD PTR _j$[ebp]
	mov	ecx, DWORD PTR _table$[ebp]
	mov	edx, DWORD PTR [ecx+eax*4]
	mov	eax, DWORD PTR _k$[ebp]
	mov	ecx, DWORD PTR _i$[ebp]
	mov	DWORD PTR [edx+eax*4], ecx
	mov	edx, DWORD PTR _j$[ebp]
	add	edx, 1
	mov	DWORD PTR _j$[ebp], edx
	mov	eax, DWORD PTR _i$[ebp]
	add	eax, 1
	mov	DWORD PTR _i$[ebp], eax

; 929  : 				table[j][k--] = i++;

	mov	eax, DWORD PTR _j$[ebp]
	mov	ecx, DWORD PTR _table$[ebp]
	mov	edx, DWORD PTR [ecx+eax*4]
	mov	eax, DWORD PTR _k$[ebp]
	mov	ecx, DWORD PTR _i$[ebp]
	mov	DWORD PTR [edx+eax*4], ecx
	mov	edx, DWORD PTR _k$[ebp]
	sub	edx, 1
	mov	DWORD PTR _k$[ebp], edx
	mov	eax, DWORD PTR _i$[ebp]
	add	eax, 1
	mov	DWORD PTR _i$[ebp], eax

; 930  : 				table[j][k--] = i++;

	mov	eax, DWORD PTR _j$[ebp]
	mov	ecx, DWORD PTR _table$[ebp]
	mov	edx, DWORD PTR [ecx+eax*4]
	mov	eax, DWORD PTR _k$[ebp]
	mov	ecx, DWORD PTR _i$[ebp]
	mov	DWORD PTR [edx+eax*4], ecx
	mov	edx, DWORD PTR _k$[ebp]
	sub	edx, 1
	mov	DWORD PTR _k$[ebp], edx
	mov	eax, DWORD PTR _i$[ebp]
	add	eax, 1
	mov	DWORD PTR _i$[ebp], eax

; 931  : 				table[j][k] = i++;

	mov	eax, DWORD PTR _j$[ebp]
	mov	ecx, DWORD PTR _table$[ebp]
	mov	edx, DWORD PTR [ecx+eax*4]
	mov	eax, DWORD PTR _k$[ebp]
	mov	ecx, DWORD PTR _i$[ebp]
	mov	DWORD PTR [edx+eax*4], ecx
	mov	edx, DWORD PTR _i$[ebp]
	add	edx, 1
	mov	DWORD PTR _i$[ebp], edx

; 932  : 
; 933  : 				*sum -= 9;

	mov	eax, DWORD PTR _sum$[ebp]
	mov	ecx, DWORD PTR [eax]
	sub	ecx, 9
	mov	edx, DWORD PTR _sum$[ebp]
	mov	DWORD PTR [edx], ecx

; 934  : 				int result = cub_9(table, 17, i, j, k, n, sum, tab, I, J, K);

	mov	eax, DWORD PTR _K$[ebp]
	push	eax
	mov	ecx, DWORD PTR _J$[ebp]
	push	ecx
	mov	edx, DWORD PTR _I$[ebp]
	push	edx
	mov	eax, DWORD PTR _tab$[ebp]
	push	eax
	mov	ecx, DWORD PTR _sum$[ebp]
	push	ecx
	mov	edx, DWORD PTR _n$[ebp]
	push	edx
	mov	eax, DWORD PTR _k$[ebp]
	push	eax
	mov	ecx, DWORD PTR _j$[ebp]
	push	ecx
	mov	edx, DWORD PTR _i$[ebp]
	push	edx
	push	17					; 00000011H
	mov	eax, DWORD PTR _table$[ebp]
	push	eax
	call	?cub_9@@YAHPAPAHHHHHHPAH0HHH@Z		; cub_9
	add	esp, 44					; 0000002cH
	mov	DWORD PTR _result$45[ebp], eax

; 935  : 				if (result == -1 && table[0][n - 1] != n*n) {

	cmp	DWORD PTR _result$45[ebp], -1
	jne	$LN100@cub_9
	mov	eax, 4
	imul	ecx, eax, 0
	mov	edx, DWORD PTR _table$[ebp]
	mov	eax, DWORD PTR [edx+ecx]
	mov	ecx, DWORD PTR _n$[ebp]
	imul	ecx, DWORD PTR _n$[ebp]
	mov	edx, DWORD PTR _n$[ebp]
	cmp	DWORD PTR [eax+edx*4-4], ecx
	je	$LN100@cub_9

; 936  : 					//zzHOR_44(table, &i, &j, &k);
; 937  : 
; 938  : 					i = i - 9;

	mov	eax, DWORD PTR _i$[ebp]
	sub	eax, 9
	mov	DWORD PTR _i$[ebp], eax

; 939  : 					table[j][k++] = 0;

	mov	eax, DWORD PTR _j$[ebp]
	mov	ecx, DWORD PTR _table$[ebp]
	mov	edx, DWORD PTR [ecx+eax*4]
	mov	eax, DWORD PTR _k$[ebp]
	mov	DWORD PTR [edx+eax*4], 0
	mov	ecx, DWORD PTR _k$[ebp]
	add	ecx, 1
	mov	DWORD PTR _k$[ebp], ecx

; 940  : 					table[j][k++] = 0;

	mov	eax, DWORD PTR _j$[ebp]
	mov	ecx, DWORD PTR _table$[ebp]
	mov	edx, DWORD PTR [ecx+eax*4]
	mov	eax, DWORD PTR _k$[ebp]
	mov	DWORD PTR [edx+eax*4], 0
	mov	ecx, DWORD PTR _k$[ebp]
	add	ecx, 1
	mov	DWORD PTR _k$[ebp], ecx

; 941  : 					table[j--][k] = 0;

	mov	eax, DWORD PTR _j$[ebp]
	mov	ecx, DWORD PTR _table$[ebp]
	mov	edx, DWORD PTR [ecx+eax*4]
	mov	eax, DWORD PTR _k$[ebp]
	mov	DWORD PTR [edx+eax*4], 0
	mov	ecx, DWORD PTR _j$[ebp]
	sub	ecx, 1
	mov	DWORD PTR _j$[ebp], ecx

; 942  : 					table[j][k--] = 0;

	mov	eax, DWORD PTR _j$[ebp]
	mov	ecx, DWORD PTR _table$[ebp]
	mov	edx, DWORD PTR [ecx+eax*4]
	mov	eax, DWORD PTR _k$[ebp]
	mov	DWORD PTR [edx+eax*4], 0
	mov	ecx, DWORD PTR _k$[ebp]
	sub	ecx, 1
	mov	DWORD PTR _k$[ebp], ecx

; 943  : 					table[j][k--] = 0;

	mov	eax, DWORD PTR _j$[ebp]
	mov	ecx, DWORD PTR _table$[ebp]
	mov	edx, DWORD PTR [ecx+eax*4]
	mov	eax, DWORD PTR _k$[ebp]
	mov	DWORD PTR [edx+eax*4], 0
	mov	ecx, DWORD PTR _k$[ebp]
	sub	ecx, 1
	mov	DWORD PTR _k$[ebp], ecx

; 944  : 					table[j--][k] = 0;

	mov	eax, DWORD PTR _j$[ebp]
	mov	ecx, DWORD PTR _table$[ebp]
	mov	edx, DWORD PTR [ecx+eax*4]
	mov	eax, DWORD PTR _k$[ebp]
	mov	DWORD PTR [edx+eax*4], 0
	mov	ecx, DWORD PTR _j$[ebp]
	sub	ecx, 1
	mov	DWORD PTR _j$[ebp], ecx

; 945  : 					table[j][k++] = 0;

	mov	eax, DWORD PTR _j$[ebp]
	mov	ecx, DWORD PTR _table$[ebp]
	mov	edx, DWORD PTR [ecx+eax*4]
	mov	eax, DWORD PTR _k$[ebp]
	mov	DWORD PTR [edx+eax*4], 0
	mov	ecx, DWORD PTR _k$[ebp]
	add	ecx, 1
	mov	DWORD PTR _k$[ebp], ecx

; 946  : 					table[j][k++] = 0;

	mov	eax, DWORD PTR _j$[ebp]
	mov	ecx, DWORD PTR _table$[ebp]
	mov	edx, DWORD PTR [ecx+eax*4]
	mov	eax, DWORD PTR _k$[ebp]
	mov	DWORD PTR [edx+eax*4], 0
	mov	ecx, DWORD PTR _k$[ebp]
	add	ecx, 1
	mov	DWORD PTR _k$[ebp], ecx

; 947  : 					table[j][k] = 0;

	mov	eax, DWORD PTR _j$[ebp]
	mov	ecx, DWORD PTR _table$[ebp]
	mov	edx, DWORD PTR [ecx+eax*4]
	mov	eax, DWORD PTR _k$[ebp]
	mov	DWORD PTR [edx+eax*4], 0

; 948  : 
; 949  : 					*sum += 9;

	mov	eax, DWORD PTR _sum$[ebp]
	mov	ecx, DWORD PTR [eax]
	add	ecx, 9
	mov	edx, DWORD PTR _sum$[ebp]
	mov	DWORD PTR [edx], ecx

; 950  : 					j--;

	mov	eax, DWORD PTR _j$[ebp]
	sub	eax, 1
	mov	DWORD PTR _j$[ebp], eax

; 951  : 					J--;

	mov	eax, DWORD PTR _J$[ebp]
	sub	eax, 1
	mov	DWORD PTR _J$[ebp], eax
$LN100@cub_9:

; 952  : 				}
; 953  : 			}
; 954  : 			if (table[0][n - 1] != n * n && flag == 23 && K != n / 3 - 1 && tab[J][K + 1] - tab[J][K] == 1) {

	mov	eax, 4
	imul	ecx, eax, 0
	mov	edx, DWORD PTR _table$[ebp]
	mov	eax, DWORD PTR [edx+ecx]
	mov	ecx, DWORD PTR _n$[ebp]
	imul	ecx, DWORD PTR _n$[ebp]
	mov	edx, DWORD PTR _n$[ebp]
	cmp	DWORD PTR [eax+edx*4-4], ecx
	je	$LN102@cub_9
	cmp	DWORD PTR _flag$[ebp], 23		; 00000017H
	jne	$LN102@cub_9
	mov	eax, DWORD PTR _n$[ebp]
	cdq
	mov	ecx, 3
	idiv	ecx
	sub	eax, 1
	cmp	DWORD PTR _K$[ebp], eax
	je	$LN102@cub_9
	mov	eax, DWORD PTR _J$[ebp]
	mov	ecx, DWORD PTR _tab$[ebp]
	mov	edx, DWORD PTR [ecx+eax*4]
	mov	eax, DWORD PTR _J$[ebp]
	mov	ecx, DWORD PTR _tab$[ebp]
	mov	eax, DWORD PTR [ecx+eax*4]
	mov	ecx, DWORD PTR _K$[ebp]
	mov	esi, DWORD PTR _K$[ebp]
	mov	edx, DWORD PTR [edx+ecx*4+4]
	sub	edx, DWORD PTR [eax+esi*4]
	cmp	edx, 1
	jne	$LN102@cub_9

; 955  : 				k++;

	mov	eax, DWORD PTR _k$[ebp]
	add	eax, 1
	mov	DWORD PTR _k$[ebp], eax

; 956  : 				K++;

	mov	eax, DWORD PTR _K$[ebp]
	add	eax, 1
	mov	DWORD PTR _K$[ebp], eax

; 957  : 				//zzVER_1(table, &i, &j, &k);
; 958  : 
; 959  : 				table[j++][k] = i++;

	mov	eax, DWORD PTR _j$[ebp]
	mov	ecx, DWORD PTR _table$[ebp]
	mov	edx, DWORD PTR [ecx+eax*4]
	mov	eax, DWORD PTR _k$[ebp]
	mov	ecx, DWORD PTR _i$[ebp]
	mov	DWORD PTR [edx+eax*4], ecx
	mov	edx, DWORD PTR _j$[ebp]
	add	edx, 1
	mov	DWORD PTR _j$[ebp], edx
	mov	eax, DWORD PTR _i$[ebp]
	add	eax, 1
	mov	DWORD PTR _i$[ebp], eax

; 960  : 				table[j++][k] = i++;

	mov	eax, DWORD PTR _j$[ebp]
	mov	ecx, DWORD PTR _table$[ebp]
	mov	edx, DWORD PTR [ecx+eax*4]
	mov	eax, DWORD PTR _k$[ebp]
	mov	ecx, DWORD PTR _i$[ebp]
	mov	DWORD PTR [edx+eax*4], ecx
	mov	edx, DWORD PTR _j$[ebp]
	add	edx, 1
	mov	DWORD PTR _j$[ebp], edx
	mov	eax, DWORD PTR _i$[ebp]
	add	eax, 1
	mov	DWORD PTR _i$[ebp], eax

; 961  : 				table[j][k++] = i++;

	mov	eax, DWORD PTR _j$[ebp]
	mov	ecx, DWORD PTR _table$[ebp]
	mov	edx, DWORD PTR [ecx+eax*4]
	mov	eax, DWORD PTR _k$[ebp]
	mov	ecx, DWORD PTR _i$[ebp]
	mov	DWORD PTR [edx+eax*4], ecx
	mov	edx, DWORD PTR _k$[ebp]
	add	edx, 1
	mov	DWORD PTR _k$[ebp], edx
	mov	eax, DWORD PTR _i$[ebp]
	add	eax, 1
	mov	DWORD PTR _i$[ebp], eax

; 962  : 				table[j--][k] = i++;

	mov	eax, DWORD PTR _j$[ebp]
	mov	ecx, DWORD PTR _table$[ebp]
	mov	edx, DWORD PTR [ecx+eax*4]
	mov	eax, DWORD PTR _k$[ebp]
	mov	ecx, DWORD PTR _i$[ebp]
	mov	DWORD PTR [edx+eax*4], ecx
	mov	edx, DWORD PTR _j$[ebp]
	sub	edx, 1
	mov	DWORD PTR _j$[ebp], edx
	mov	eax, DWORD PTR _i$[ebp]
	add	eax, 1
	mov	DWORD PTR _i$[ebp], eax

; 963  : 				table[j--][k] = i++;

	mov	eax, DWORD PTR _j$[ebp]
	mov	ecx, DWORD PTR _table$[ebp]
	mov	edx, DWORD PTR [ecx+eax*4]
	mov	eax, DWORD PTR _k$[ebp]
	mov	ecx, DWORD PTR _i$[ebp]
	mov	DWORD PTR [edx+eax*4], ecx
	mov	edx, DWORD PTR _j$[ebp]
	sub	edx, 1
	mov	DWORD PTR _j$[ebp], edx
	mov	eax, DWORD PTR _i$[ebp]
	add	eax, 1
	mov	DWORD PTR _i$[ebp], eax

; 964  : 				table[j][k++] = i++;

	mov	eax, DWORD PTR _j$[ebp]
	mov	ecx, DWORD PTR _table$[ebp]
	mov	edx, DWORD PTR [ecx+eax*4]
	mov	eax, DWORD PTR _k$[ebp]
	mov	ecx, DWORD PTR _i$[ebp]
	mov	DWORD PTR [edx+eax*4], ecx
	mov	edx, DWORD PTR _k$[ebp]
	add	edx, 1
	mov	DWORD PTR _k$[ebp], edx
	mov	eax, DWORD PTR _i$[ebp]
	add	eax, 1
	mov	DWORD PTR _i$[ebp], eax

; 965  : 				table[j++][k] = i++;

	mov	eax, DWORD PTR _j$[ebp]
	mov	ecx, DWORD PTR _table$[ebp]
	mov	edx, DWORD PTR [ecx+eax*4]
	mov	eax, DWORD PTR _k$[ebp]
	mov	ecx, DWORD PTR _i$[ebp]
	mov	DWORD PTR [edx+eax*4], ecx
	mov	edx, DWORD PTR _j$[ebp]
	add	edx, 1
	mov	DWORD PTR _j$[ebp], edx
	mov	eax, DWORD PTR _i$[ebp]
	add	eax, 1
	mov	DWORD PTR _i$[ebp], eax

; 966  : 				table[j++][k] = i++;

	mov	eax, DWORD PTR _j$[ebp]
	mov	ecx, DWORD PTR _table$[ebp]
	mov	edx, DWORD PTR [ecx+eax*4]
	mov	eax, DWORD PTR _k$[ebp]
	mov	ecx, DWORD PTR _i$[ebp]
	mov	DWORD PTR [edx+eax*4], ecx
	mov	edx, DWORD PTR _j$[ebp]
	add	edx, 1
	mov	DWORD PTR _j$[ebp], edx
	mov	eax, DWORD PTR _i$[ebp]
	add	eax, 1
	mov	DWORD PTR _i$[ebp], eax

; 967  : 				table[j][k] = i++;

	mov	eax, DWORD PTR _j$[ebp]
	mov	ecx, DWORD PTR _table$[ebp]
	mov	edx, DWORD PTR [ecx+eax*4]
	mov	eax, DWORD PTR _k$[ebp]
	mov	ecx, DWORD PTR _i$[ebp]
	mov	DWORD PTR [edx+eax*4], ecx
	mov	edx, DWORD PTR _i$[ebp]
	add	edx, 1
	mov	DWORD PTR _i$[ebp], edx

; 968  : 
; 969  : 				*sum -= 9;

	mov	eax, DWORD PTR _sum$[ebp]
	mov	ecx, DWORD PTR [eax]
	sub	ecx, 9
	mov	edx, DWORD PTR _sum$[ebp]
	mov	DWORD PTR [edx], ecx

; 970  : 				int result = cub_9(table, 49, i, j, k, n, sum, tab, I, J, K);

	mov	eax, DWORD PTR _K$[ebp]
	push	eax
	mov	ecx, DWORD PTR _J$[ebp]
	push	ecx
	mov	edx, DWORD PTR _I$[ebp]
	push	edx
	mov	eax, DWORD PTR _tab$[ebp]
	push	eax
	mov	ecx, DWORD PTR _sum$[ebp]
	push	ecx
	mov	edx, DWORD PTR _n$[ebp]
	push	edx
	mov	eax, DWORD PTR _k$[ebp]
	push	eax
	mov	ecx, DWORD PTR _j$[ebp]
	push	ecx
	mov	edx, DWORD PTR _i$[ebp]
	push	edx
	push	49					; 00000031H
	mov	eax, DWORD PTR _table$[ebp]
	push	eax
	call	?cub_9@@YAHPAPAHHHHHHPAH0HHH@Z		; cub_9
	add	esp, 44					; 0000002cH
	mov	DWORD PTR _result$44[ebp], eax

; 971  : 				if (result == -1 && table[0][n - 1] != n*n) {

	cmp	DWORD PTR _result$44[ebp], -1
	jne	$LN102@cub_9
	mov	eax, 4
	imul	ecx, eax, 0
	mov	edx, DWORD PTR _table$[ebp]
	mov	eax, DWORD PTR [edx+ecx]
	mov	ecx, DWORD PTR _n$[ebp]
	imul	ecx, DWORD PTR _n$[ebp]
	mov	edx, DWORD PTR _n$[ebp]
	cmp	DWORD PTR [eax+edx*4-4], ecx
	je	$LN102@cub_9

; 972  : 					//zzVER_11(table, &i, &j, &k);
; 973  : 
; 974  : 					i = i - 9;

	mov	eax, DWORD PTR _i$[ebp]
	sub	eax, 9
	mov	DWORD PTR _i$[ebp], eax

; 975  : 					table[j--][k] = 0;

	mov	eax, DWORD PTR _j$[ebp]
	mov	ecx, DWORD PTR _table$[ebp]
	mov	edx, DWORD PTR [ecx+eax*4]
	mov	eax, DWORD PTR _k$[ebp]
	mov	DWORD PTR [edx+eax*4], 0
	mov	ecx, DWORD PTR _j$[ebp]
	sub	ecx, 1
	mov	DWORD PTR _j$[ebp], ecx

; 976  : 					table[j--][k] = 0;

	mov	eax, DWORD PTR _j$[ebp]
	mov	ecx, DWORD PTR _table$[ebp]
	mov	edx, DWORD PTR [ecx+eax*4]
	mov	eax, DWORD PTR _k$[ebp]
	mov	DWORD PTR [edx+eax*4], 0
	mov	ecx, DWORD PTR _j$[ebp]
	sub	ecx, 1
	mov	DWORD PTR _j$[ebp], ecx

; 977  : 					table[j][k--] = 0;

	mov	eax, DWORD PTR _j$[ebp]
	mov	ecx, DWORD PTR _table$[ebp]
	mov	edx, DWORD PTR [ecx+eax*4]
	mov	eax, DWORD PTR _k$[ebp]
	mov	DWORD PTR [edx+eax*4], 0
	mov	ecx, DWORD PTR _k$[ebp]
	sub	ecx, 1
	mov	DWORD PTR _k$[ebp], ecx

; 978  : 					table[j++][k] = 0;

	mov	eax, DWORD PTR _j$[ebp]
	mov	ecx, DWORD PTR _table$[ebp]
	mov	edx, DWORD PTR [ecx+eax*4]
	mov	eax, DWORD PTR _k$[ebp]
	mov	DWORD PTR [edx+eax*4], 0
	mov	ecx, DWORD PTR _j$[ebp]
	add	ecx, 1
	mov	DWORD PTR _j$[ebp], ecx

; 979  : 					table[j++][k] = 0;

	mov	eax, DWORD PTR _j$[ebp]
	mov	ecx, DWORD PTR _table$[ebp]
	mov	edx, DWORD PTR [ecx+eax*4]
	mov	eax, DWORD PTR _k$[ebp]
	mov	DWORD PTR [edx+eax*4], 0
	mov	ecx, DWORD PTR _j$[ebp]
	add	ecx, 1
	mov	DWORD PTR _j$[ebp], ecx

; 980  : 					table[j][k--] = 0;

	mov	eax, DWORD PTR _j$[ebp]
	mov	ecx, DWORD PTR _table$[ebp]
	mov	edx, DWORD PTR [ecx+eax*4]
	mov	eax, DWORD PTR _k$[ebp]
	mov	DWORD PTR [edx+eax*4], 0
	mov	ecx, DWORD PTR _k$[ebp]
	sub	ecx, 1
	mov	DWORD PTR _k$[ebp], ecx

; 981  : 					table[j--][k] = 0;

	mov	eax, DWORD PTR _j$[ebp]
	mov	ecx, DWORD PTR _table$[ebp]
	mov	edx, DWORD PTR [ecx+eax*4]
	mov	eax, DWORD PTR _k$[ebp]
	mov	DWORD PTR [edx+eax*4], 0
	mov	ecx, DWORD PTR _j$[ebp]
	sub	ecx, 1
	mov	DWORD PTR _j$[ebp], ecx

; 982  : 					table[j--][k] = 0;

	mov	eax, DWORD PTR _j$[ebp]
	mov	ecx, DWORD PTR _table$[ebp]
	mov	edx, DWORD PTR [ecx+eax*4]
	mov	eax, DWORD PTR _k$[ebp]
	mov	DWORD PTR [edx+eax*4], 0
	mov	ecx, DWORD PTR _j$[ebp]
	sub	ecx, 1
	mov	DWORD PTR _j$[ebp], ecx

; 983  : 					table[j][k] = 0;

	mov	eax, DWORD PTR _j$[ebp]
	mov	ecx, DWORD PTR _table$[ebp]
	mov	edx, DWORD PTR [ecx+eax*4]
	mov	eax, DWORD PTR _k$[ebp]
	mov	DWORD PTR [edx+eax*4], 0

; 984  : 
; 985  : 					*sum += 9;

	mov	eax, DWORD PTR _sum$[ebp]
	mov	ecx, DWORD PTR [eax]
	add	ecx, 9
	mov	edx, DWORD PTR _sum$[ebp]
	mov	DWORD PTR [edx], ecx

; 986  : 					k--;

	mov	eax, DWORD PTR _k$[ebp]
	sub	eax, 1
	mov	DWORD PTR _k$[ebp], eax

; 987  : 					K--;

	mov	eax, DWORD PTR _K$[ebp]
	sub	eax, 1
	mov	DWORD PTR _K$[ebp], eax
$LN102@cub_9:

; 988  : 				}
; 989  : 			}
; 990  : 			if (table[0][n - 1] != n * n && flag == 49 && K != n / 3 - 1 && tab[J][K + 1] - tab[J][K] == 1) {

	mov	eax, 4
	imul	ecx, eax, 0
	mov	edx, DWORD PTR _table$[ebp]
	mov	eax, DWORD PTR [edx+ecx]
	mov	ecx, DWORD PTR _n$[ebp]
	imul	ecx, DWORD PTR _n$[ebp]
	mov	edx, DWORD PTR _n$[ebp]
	cmp	DWORD PTR [eax+edx*4-4], ecx
	je	$LN104@cub_9
	cmp	DWORD PTR _flag$[ebp], 49		; 00000031H
	jne	$LN104@cub_9
	mov	eax, DWORD PTR _n$[ebp]
	cdq
	mov	ecx, 3
	idiv	ecx
	sub	eax, 1
	cmp	DWORD PTR _K$[ebp], eax
	je	$LN104@cub_9
	mov	eax, DWORD PTR _J$[ebp]
	mov	ecx, DWORD PTR _tab$[ebp]
	mov	edx, DWORD PTR [ecx+eax*4]
	mov	eax, DWORD PTR _J$[ebp]
	mov	ecx, DWORD PTR _tab$[ebp]
	mov	eax, DWORD PTR [ecx+eax*4]
	mov	ecx, DWORD PTR _K$[ebp]
	mov	esi, DWORD PTR _K$[ebp]
	mov	edx, DWORD PTR [edx+ecx*4+4]
	sub	edx, DWORD PTR [eax+esi*4]
	cmp	edx, 1
	jne	$LN104@cub_9

; 991  : 				k++;

	mov	eax, DWORD PTR _k$[ebp]
	add	eax, 1
	mov	DWORD PTR _k$[ebp], eax

; 992  : 				K++;

	mov	eax, DWORD PTR _K$[ebp]
	add	eax, 1
	mov	DWORD PTR _K$[ebp], eax

; 993  : 				//zzVER_2(table, &i, &j, &k);
; 994  : 
; 995  : 				table[j--][k] = i++;

	mov	eax, DWORD PTR _j$[ebp]
	mov	ecx, DWORD PTR _table$[ebp]
	mov	edx, DWORD PTR [ecx+eax*4]
	mov	eax, DWORD PTR _k$[ebp]
	mov	ecx, DWORD PTR _i$[ebp]
	mov	DWORD PTR [edx+eax*4], ecx
	mov	edx, DWORD PTR _j$[ebp]
	sub	edx, 1
	mov	DWORD PTR _j$[ebp], edx
	mov	eax, DWORD PTR _i$[ebp]
	add	eax, 1
	mov	DWORD PTR _i$[ebp], eax

; 996  : 				table[j--][k] = i++;

	mov	eax, DWORD PTR _j$[ebp]
	mov	ecx, DWORD PTR _table$[ebp]
	mov	edx, DWORD PTR [ecx+eax*4]
	mov	eax, DWORD PTR _k$[ebp]
	mov	ecx, DWORD PTR _i$[ebp]
	mov	DWORD PTR [edx+eax*4], ecx
	mov	edx, DWORD PTR _j$[ebp]
	sub	edx, 1
	mov	DWORD PTR _j$[ebp], edx
	mov	eax, DWORD PTR _i$[ebp]
	add	eax, 1
	mov	DWORD PTR _i$[ebp], eax

; 997  : 				table[j][k++] = i++;

	mov	eax, DWORD PTR _j$[ebp]
	mov	ecx, DWORD PTR _table$[ebp]
	mov	edx, DWORD PTR [ecx+eax*4]
	mov	eax, DWORD PTR _k$[ebp]
	mov	ecx, DWORD PTR _i$[ebp]
	mov	DWORD PTR [edx+eax*4], ecx
	mov	edx, DWORD PTR _k$[ebp]
	add	edx, 1
	mov	DWORD PTR _k$[ebp], edx
	mov	eax, DWORD PTR _i$[ebp]
	add	eax, 1
	mov	DWORD PTR _i$[ebp], eax

; 998  : 				table[j++][k] = i++;

	mov	eax, DWORD PTR _j$[ebp]
	mov	ecx, DWORD PTR _table$[ebp]
	mov	edx, DWORD PTR [ecx+eax*4]
	mov	eax, DWORD PTR _k$[ebp]
	mov	ecx, DWORD PTR _i$[ebp]
	mov	DWORD PTR [edx+eax*4], ecx
	mov	edx, DWORD PTR _j$[ebp]
	add	edx, 1
	mov	DWORD PTR _j$[ebp], edx
	mov	eax, DWORD PTR _i$[ebp]
	add	eax, 1
	mov	DWORD PTR _i$[ebp], eax

; 999  : 				table[j++][k] = i++;

	mov	eax, DWORD PTR _j$[ebp]
	mov	ecx, DWORD PTR _table$[ebp]
	mov	edx, DWORD PTR [ecx+eax*4]
	mov	eax, DWORD PTR _k$[ebp]
	mov	ecx, DWORD PTR _i$[ebp]
	mov	DWORD PTR [edx+eax*4], ecx
	mov	edx, DWORD PTR _j$[ebp]
	add	edx, 1
	mov	DWORD PTR _j$[ebp], edx
	mov	eax, DWORD PTR _i$[ebp]
	add	eax, 1
	mov	DWORD PTR _i$[ebp], eax

; 1000 : 				table[j][k++] = i++;

	mov	eax, DWORD PTR _j$[ebp]
	mov	ecx, DWORD PTR _table$[ebp]
	mov	edx, DWORD PTR [ecx+eax*4]
	mov	eax, DWORD PTR _k$[ebp]
	mov	ecx, DWORD PTR _i$[ebp]
	mov	DWORD PTR [edx+eax*4], ecx
	mov	edx, DWORD PTR _k$[ebp]
	add	edx, 1
	mov	DWORD PTR _k$[ebp], edx
	mov	eax, DWORD PTR _i$[ebp]
	add	eax, 1
	mov	DWORD PTR _i$[ebp], eax

; 1001 : 				table[j--][k] = i++;

	mov	eax, DWORD PTR _j$[ebp]
	mov	ecx, DWORD PTR _table$[ebp]
	mov	edx, DWORD PTR [ecx+eax*4]
	mov	eax, DWORD PTR _k$[ebp]
	mov	ecx, DWORD PTR _i$[ebp]
	mov	DWORD PTR [edx+eax*4], ecx
	mov	edx, DWORD PTR _j$[ebp]
	sub	edx, 1
	mov	DWORD PTR _j$[ebp], edx
	mov	eax, DWORD PTR _i$[ebp]
	add	eax, 1
	mov	DWORD PTR _i$[ebp], eax

; 1002 : 				table[j--][k] = i++;

	mov	eax, DWORD PTR _j$[ebp]
	mov	ecx, DWORD PTR _table$[ebp]
	mov	edx, DWORD PTR [ecx+eax*4]
	mov	eax, DWORD PTR _k$[ebp]
	mov	ecx, DWORD PTR _i$[ebp]
	mov	DWORD PTR [edx+eax*4], ecx
	mov	edx, DWORD PTR _j$[ebp]
	sub	edx, 1
	mov	DWORD PTR _j$[ebp], edx
	mov	eax, DWORD PTR _i$[ebp]
	add	eax, 1
	mov	DWORD PTR _i$[ebp], eax

; 1003 : 				table[j][k] = i++;

	mov	eax, DWORD PTR _j$[ebp]
	mov	ecx, DWORD PTR _table$[ebp]
	mov	edx, DWORD PTR [ecx+eax*4]
	mov	eax, DWORD PTR _k$[ebp]
	mov	ecx, DWORD PTR _i$[ebp]
	mov	DWORD PTR [edx+eax*4], ecx
	mov	edx, DWORD PTR _i$[ebp]
	add	edx, 1
	mov	DWORD PTR _i$[ebp], edx

; 1004 : 
; 1005 : 				*sum -= 9;

	mov	eax, DWORD PTR _sum$[ebp]
	mov	ecx, DWORD PTR [eax]
	sub	ecx, 9
	mov	edx, DWORD PTR _sum$[ebp]
	mov	DWORD PTR [edx], ecx

; 1006 : 				int result = cub_9(table, 23, i, j, k, n, sum, tab, I, J, K);

	mov	eax, DWORD PTR _K$[ebp]
	push	eax
	mov	ecx, DWORD PTR _J$[ebp]
	push	ecx
	mov	edx, DWORD PTR _I$[ebp]
	push	edx
	mov	eax, DWORD PTR _tab$[ebp]
	push	eax
	mov	ecx, DWORD PTR _sum$[ebp]
	push	ecx
	mov	edx, DWORD PTR _n$[ebp]
	push	edx
	mov	eax, DWORD PTR _k$[ebp]
	push	eax
	mov	ecx, DWORD PTR _j$[ebp]
	push	ecx
	mov	edx, DWORD PTR _i$[ebp]
	push	edx
	push	23					; 00000017H
	mov	eax, DWORD PTR _table$[ebp]
	push	eax
	call	?cub_9@@YAHPAPAHHHHHHPAH0HHH@Z		; cub_9
	add	esp, 44					; 0000002cH
	mov	DWORD PTR _result$43[ebp], eax

; 1007 : 				if (result == -1 && table[0][n - 1] != n*n) {

	cmp	DWORD PTR _result$43[ebp], -1
	jne	$LN104@cub_9
	mov	eax, 4
	imul	ecx, eax, 0
	mov	edx, DWORD PTR _table$[ebp]
	mov	eax, DWORD PTR [edx+ecx]
	mov	ecx, DWORD PTR _n$[ebp]
	imul	ecx, DWORD PTR _n$[ebp]
	mov	edx, DWORD PTR _n$[ebp]
	cmp	DWORD PTR [eax+edx*4-4], ecx
	je	$LN104@cub_9

; 1008 : 					//zzVER_22(table, &i, &j, &k);
; 1009 : 
; 1010 : 					i = i - 9;

	mov	eax, DWORD PTR _i$[ebp]
	sub	eax, 9
	mov	DWORD PTR _i$[ebp], eax

; 1011 : 					table[j++][k] = 0;

	mov	eax, DWORD PTR _j$[ebp]
	mov	ecx, DWORD PTR _table$[ebp]
	mov	edx, DWORD PTR [ecx+eax*4]
	mov	eax, DWORD PTR _k$[ebp]
	mov	DWORD PTR [edx+eax*4], 0
	mov	ecx, DWORD PTR _j$[ebp]
	add	ecx, 1
	mov	DWORD PTR _j$[ebp], ecx

; 1012 : 					table[j++][k] = 0;

	mov	eax, DWORD PTR _j$[ebp]
	mov	ecx, DWORD PTR _table$[ebp]
	mov	edx, DWORD PTR [ecx+eax*4]
	mov	eax, DWORD PTR _k$[ebp]
	mov	DWORD PTR [edx+eax*4], 0
	mov	ecx, DWORD PTR _j$[ebp]
	add	ecx, 1
	mov	DWORD PTR _j$[ebp], ecx

; 1013 : 					table[j][k--] = 0;

	mov	eax, DWORD PTR _j$[ebp]
	mov	ecx, DWORD PTR _table$[ebp]
	mov	edx, DWORD PTR [ecx+eax*4]
	mov	eax, DWORD PTR _k$[ebp]
	mov	DWORD PTR [edx+eax*4], 0
	mov	ecx, DWORD PTR _k$[ebp]
	sub	ecx, 1
	mov	DWORD PTR _k$[ebp], ecx

; 1014 : 					table[j--][k] = 0;

	mov	eax, DWORD PTR _j$[ebp]
	mov	ecx, DWORD PTR _table$[ebp]
	mov	edx, DWORD PTR [ecx+eax*4]
	mov	eax, DWORD PTR _k$[ebp]
	mov	DWORD PTR [edx+eax*4], 0
	mov	ecx, DWORD PTR _j$[ebp]
	sub	ecx, 1
	mov	DWORD PTR _j$[ebp], ecx

; 1015 : 					table[j--][k] = 0;

	mov	eax, DWORD PTR _j$[ebp]
	mov	ecx, DWORD PTR _table$[ebp]
	mov	edx, DWORD PTR [ecx+eax*4]
	mov	eax, DWORD PTR _k$[ebp]
	mov	DWORD PTR [edx+eax*4], 0
	mov	ecx, DWORD PTR _j$[ebp]
	sub	ecx, 1
	mov	DWORD PTR _j$[ebp], ecx

; 1016 : 					table[j][k--] = 0;

	mov	eax, DWORD PTR _j$[ebp]
	mov	ecx, DWORD PTR _table$[ebp]
	mov	edx, DWORD PTR [ecx+eax*4]
	mov	eax, DWORD PTR _k$[ebp]
	mov	DWORD PTR [edx+eax*4], 0
	mov	ecx, DWORD PTR _k$[ebp]
	sub	ecx, 1
	mov	DWORD PTR _k$[ebp], ecx

; 1017 : 					table[j++][k] = 0;

	mov	eax, DWORD PTR _j$[ebp]
	mov	ecx, DWORD PTR _table$[ebp]
	mov	edx, DWORD PTR [ecx+eax*4]
	mov	eax, DWORD PTR _k$[ebp]
	mov	DWORD PTR [edx+eax*4], 0
	mov	ecx, DWORD PTR _j$[ebp]
	add	ecx, 1
	mov	DWORD PTR _j$[ebp], ecx

; 1018 : 					table[j++][k] = 0;

	mov	eax, DWORD PTR _j$[ebp]
	mov	ecx, DWORD PTR _table$[ebp]
	mov	edx, DWORD PTR [ecx+eax*4]
	mov	eax, DWORD PTR _k$[ebp]
	mov	DWORD PTR [edx+eax*4], 0
	mov	ecx, DWORD PTR _j$[ebp]
	add	ecx, 1
	mov	DWORD PTR _j$[ebp], ecx

; 1019 : 					table[j][k] = 0;

	mov	eax, DWORD PTR _j$[ebp]
	mov	ecx, DWORD PTR _table$[ebp]
	mov	edx, DWORD PTR [ecx+eax*4]
	mov	eax, DWORD PTR _k$[ebp]
	mov	DWORD PTR [edx+eax*4], 0

; 1020 : 
; 1021 : 					*sum += 9;

	mov	eax, DWORD PTR _sum$[ebp]
	mov	ecx, DWORD PTR [eax]
	add	ecx, 9
	mov	edx, DWORD PTR _sum$[ebp]
	mov	DWORD PTR [edx], ecx

; 1022 : 					k--;

	mov	eax, DWORD PTR _k$[ebp]
	sub	eax, 1
	mov	DWORD PTR _k$[ebp], eax

; 1023 : 					K--;

	mov	eax, DWORD PTR _K$[ebp]
	sub	eax, 1
	mov	DWORD PTR _K$[ebp], eax
$LN104@cub_9:

; 1024 : 				}
; 1025 : 			}
; 1026 : 			if (table[0][n - 1] != n * n && flag == 47 && K != 0 && tab[J][K - 1] - tab[J][K] == 1) {

	mov	eax, 4
	imul	ecx, eax, 0
	mov	edx, DWORD PTR _table$[ebp]
	mov	eax, DWORD PTR [edx+ecx]
	mov	ecx, DWORD PTR _n$[ebp]
	imul	ecx, DWORD PTR _n$[ebp]
	mov	edx, DWORD PTR _n$[ebp]
	cmp	DWORD PTR [eax+edx*4-4], ecx
	je	$LN106@cub_9
	cmp	DWORD PTR _flag$[ebp], 47		; 0000002fH
	jne	$LN106@cub_9
	cmp	DWORD PTR _K$[ebp], 0
	je	$LN106@cub_9
	mov	eax, DWORD PTR _J$[ebp]
	mov	ecx, DWORD PTR _tab$[ebp]
	mov	edx, DWORD PTR [ecx+eax*4]
	mov	eax, DWORD PTR _J$[ebp]
	mov	ecx, DWORD PTR _tab$[ebp]
	mov	eax, DWORD PTR [ecx+eax*4]
	mov	ecx, DWORD PTR _K$[ebp]
	mov	esi, DWORD PTR _K$[ebp]
	mov	edx, DWORD PTR [edx+ecx*4-4]
	sub	edx, DWORD PTR [eax+esi*4]
	cmp	edx, 1
	jne	$LN106@cub_9

; 1027 : 				k--;

	mov	eax, DWORD PTR _k$[ebp]
	sub	eax, 1
	mov	DWORD PTR _k$[ebp], eax

; 1028 : 				K--;

	mov	eax, DWORD PTR _K$[ebp]
	sub	eax, 1
	mov	DWORD PTR _K$[ebp], eax

; 1029 : 				//zzVER_3(table, &i, &j, &k);
; 1030 : 
; 1031 : 				table[j--][k] = i++;

	mov	eax, DWORD PTR _j$[ebp]
	mov	ecx, DWORD PTR _table$[ebp]
	mov	edx, DWORD PTR [ecx+eax*4]
	mov	eax, DWORD PTR _k$[ebp]
	mov	ecx, DWORD PTR _i$[ebp]
	mov	DWORD PTR [edx+eax*4], ecx
	mov	edx, DWORD PTR _j$[ebp]
	sub	edx, 1
	mov	DWORD PTR _j$[ebp], edx
	mov	eax, DWORD PTR _i$[ebp]
	add	eax, 1
	mov	DWORD PTR _i$[ebp], eax

; 1032 : 				table[j--][k] = i++;

	mov	eax, DWORD PTR _j$[ebp]
	mov	ecx, DWORD PTR _table$[ebp]
	mov	edx, DWORD PTR [ecx+eax*4]
	mov	eax, DWORD PTR _k$[ebp]
	mov	ecx, DWORD PTR _i$[ebp]
	mov	DWORD PTR [edx+eax*4], ecx
	mov	edx, DWORD PTR _j$[ebp]
	sub	edx, 1
	mov	DWORD PTR _j$[ebp], edx
	mov	eax, DWORD PTR _i$[ebp]
	add	eax, 1
